
snax.elf:     file format elf32-littlearm

Sections:
Idx Name          Size      VMA       LMA       File off  Algn
  0 .isr_vector   000001d8  08000000  08000000  00010000  2**0
                  CONTENTS, ALLOC, LOAD, READONLY, DATA
  1 .text         00004db4  080001d8  080001d8  000101d8  2**2
                  CONTENTS, ALLOC, LOAD, READONLY, CODE
  2 .rodata       00000058  08004f8c  08004f8c  00014f8c  2**0
                  CONTENTS, ALLOC, LOAD, READONLY, DATA
  3 .ARM.extab    00000000  08004fe4  08004fe4  000201ac  2**0
                  CONTENTS
  4 .ARM          00000000  08004fe4  08004fe4  000201ac  2**0
                  CONTENTS
  5 .preinit_array 00000000  08004fe4  08004fe4  000201ac  2**0
                  CONTENTS, ALLOC, LOAD, DATA
  6 .init_array   00000004  08004fe4  08004fe4  00014fe4  2**2
                  CONTENTS, ALLOC, LOAD, DATA
  7 .fini_array   00000004  08004fe8  08004fe8  00014fe8  2**2
                  CONTENTS, ALLOC, LOAD, DATA
  8 .data         000001ac  20000000  08004fec  00020000  2**2
                  CONTENTS, ALLOC, LOAD, DATA
  9 .bss          000013fc  200001ac  08005198  000201ac  2**2
                  ALLOC
 10 ._user_heap_stack 00000600  200015a8  08005198  000215a8  2**0
                  ALLOC
 11 .ARM.attributes 00000030  00000000  00000000  000201ac  2**0
                  CONTENTS, READONLY
 12 .comment      00000050  00000000  00000000  000201dc  2**0
                  CONTENTS, READONLY
 13 .debug_frame  0000004c  00000000  00000000  0002022c  2**2
                  CONTENTS, READONLY, DEBUGGING, OCTETS

Disassembly of section .text:

080001d8 <__do_global_dtors_aux>:
 80001d8:	b510      	push	{r4, lr}
 80001da:	4c05      	ldr	r4, [pc, #20]	; (80001f0 <__do_global_dtors_aux+0x18>)
 80001dc:	7823      	ldrb	r3, [r4, #0]
 80001de:	b933      	cbnz	r3, 80001ee <__do_global_dtors_aux+0x16>
 80001e0:	4b04      	ldr	r3, [pc, #16]	; (80001f4 <__do_global_dtors_aux+0x1c>)
 80001e2:	b113      	cbz	r3, 80001ea <__do_global_dtors_aux+0x12>
 80001e4:	4804      	ldr	r0, [pc, #16]	; (80001f8 <__do_global_dtors_aux+0x20>)
 80001e6:	f3af 8000 	nop.w
 80001ea:	2301      	movs	r3, #1
 80001ec:	7023      	strb	r3, [r4, #0]
 80001ee:	bd10      	pop	{r4, pc}
 80001f0:	200001ac 	.word	0x200001ac
 80001f4:	00000000 	.word	0x00000000
 80001f8:	08004f74 	.word	0x08004f74

080001fc <frame_dummy>:
 80001fc:	b508      	push	{r3, lr}
 80001fe:	4b03      	ldr	r3, [pc, #12]	; (800020c <frame_dummy+0x10>)
 8000200:	b11b      	cbz	r3, 800020a <frame_dummy+0xe>
 8000202:	4903      	ldr	r1, [pc, #12]	; (8000210 <frame_dummy+0x14>)
 8000204:	4803      	ldr	r0, [pc, #12]	; (8000214 <frame_dummy+0x18>)
 8000206:	f3af 8000 	nop.w
 800020a:	bd08      	pop	{r3, pc}
 800020c:	00000000 	.word	0x00000000
 8000210:	200001b0 	.word	0x200001b0
 8000214:	08004f74 	.word	0x08004f74

08000218 <CDC_On_Receive>:
 8000218:	680b      	ldr	r3, [r1, #0]
 800021a:	2b0a      	cmp	r3, #10
 800021c:	d10e      	bne.n	800023c <CDC_On_Receive+0x24>
 800021e:	4b08      	ldr	r3, [pc, #32]	; (8000240 <CDC_On_Receive+0x28>)
 8000220:	6802      	ldr	r2, [r0, #0]
 8000222:	601a      	str	r2, [r3, #0]
 8000224:	6842      	ldr	r2, [r0, #4]
 8000226:	605a      	str	r2, [r3, #4]
 8000228:	8902      	ldrh	r2, [r0, #8]
 800022a:	811a      	strh	r2, [r3, #8]
 800022c:	891a      	ldrh	r2, [r3, #8]
 800022e:	f64a 23aa 	movw	r3, #43690	; 0xaaaa
 8000232:	429a      	cmp	r2, r3
 8000234:	bf02      	ittt	eq
 8000236:	4b03      	ldreq	r3, [pc, #12]	; (8000244 <CDC_On_Receive+0x2c>)
 8000238:	2201      	moveq	r2, #1
 800023a:	701a      	strbeq	r2, [r3, #0]
 800023c:	4770      	bx	lr
 800023e:	bf00      	nop
 8000240:	200001c8 	.word	0x200001c8
 8000244:	200003e8 	.word	0x200003e8

08000248 <controlMotor>:
 8000248:	8843      	ldrh	r3, [r0, #2]
 800024a:	1acb      	subs	r3, r1, r3
 800024c:	b510      	push	{r4, lr}
 800024e:	b21b      	sxth	r3, r3
 8000250:	1ad2      	subs	r2, r2, r3
 8000252:	8003      	strh	r3, [r0, #0]
 8000254:	6883      	ldr	r3, [r0, #8]
 8000256:	8041      	strh	r1, [r0, #2]
 8000258:	f9b0 1006 	ldrsh.w	r1, [r0, #6]
 800025c:	f9b0 4004 	ldrsh.w	r4, [r0, #4]
 8000260:	4413      	add	r3, r2
 8000262:	6083      	str	r3, [r0, #8]
 8000264:	434b      	muls	r3, r1
 8000266:	fb02 3004 	mla	r0, r2, r4, r3
 800026a:	bd10      	pop	{r4, pc}

0800026c <HAL_TIM_PeriodElapsedCallback>:
 800026c:	4b34      	ldr	r3, [pc, #208]	; (8000340 <HAL_TIM_PeriodElapsedCallback+0xd4>)
 800026e:	4835      	ldr	r0, [pc, #212]	; (8000344 <HAL_TIM_PeriodElapsedCallback+0xd8>)
 8000270:	6a59      	ldr	r1, [r3, #36]	; 0x24
 8000272:	e92d 47f0 	stmdb	sp!, {r4, r5, r6, r7, r8, r9, sl, lr}
 8000276:	f8df 90e8 	ldr.w	r9, [pc, #232]	; 8000360 <HAL_TIM_PeriodElapsedCallback+0xf4>
 800027a:	4f33      	ldr	r7, [pc, #204]	; (8000348 <HAL_TIM_PeriodElapsedCallback+0xdc>)
 800027c:	f9b9 2000 	ldrsh.w	r2, [r9]
 8000280:	b209      	sxth	r1, r1
 8000282:	f7ff ffe1 	bl	8000248 <controlMotor>
 8000286:	4b31      	ldr	r3, [pc, #196]	; (800034c <HAL_TIM_PeriodElapsedCallback+0xe0>)
 8000288:	f9b9 2002 	ldrsh.w	r2, [r9, #2]
 800028c:	6a59      	ldr	r1, [r3, #36]	; 0x24
 800028e:	f64f 74ff 	movw	r4, #65535	; 0xffff
 8000292:	42a0      	cmp	r0, r4
 8000294:	4605      	mov	r5, r0
 8000296:	bfa8      	it	ge
 8000298:	4625      	movge	r5, r4
 800029a:	42bd      	cmp	r5, r7
 800029c:	4606      	mov	r6, r0
 800029e:	b209      	sxth	r1, r1
 80002a0:	482b      	ldr	r0, [pc, #172]	; (8000350 <HAL_TIM_PeriodElapsedCallback+0xe4>)
 80002a2:	bfb8      	it	lt
 80002a4:	463d      	movlt	r5, r7
 80002a6:	f7ff ffcf 	bl	8000248 <controlMotor>
 80002aa:	4b2a      	ldr	r3, [pc, #168]	; (8000354 <HAL_TIM_PeriodElapsedCallback+0xe8>)
 80002ac:	f9b9 2004 	ldrsh.w	r2, [r9, #4]
 80002b0:	6a59      	ldr	r1, [r3, #36]	; 0x24
 80002b2:	42a0      	cmp	r0, r4
 80002b4:	4680      	mov	r8, r0
 80002b6:	bfa8      	it	ge
 80002b8:	46a0      	movge	r8, r4
 80002ba:	45b8      	cmp	r8, r7
 80002bc:	4682      	mov	sl, r0
 80002be:	b209      	sxth	r1, r1
 80002c0:	4825      	ldr	r0, [pc, #148]	; (8000358 <HAL_TIM_PeriodElapsedCallback+0xec>)
 80002c2:	bfb8      	it	lt
 80002c4:	46b8      	movlt	r8, r7
 80002c6:	f7ff ffbf 	bl	8000248 <controlMotor>
 80002ca:	4284      	cmp	r4, r0
 80002cc:	bfa8      	it	ge
 80002ce:	4604      	movge	r4, r0
 80002d0:	42bc      	cmp	r4, r7
 80002d2:	bfb8      	it	lt
 80002d4:	463c      	movlt	r4, r7
 80002d6:	f04f 4380 	mov.w	r3, #1073741824	; 0x40000000
 80002da:	2e00      	cmp	r6, #0
 80002dc:	bfba      	itte	lt
 80002de:	426d      	neglt	r5, r5
 80002e0:	2200      	movlt	r2, #0
 80002e2:	2201      	movge	r2, #1
 80002e4:	f44f 6180 	mov.w	r1, #1024	; 0x400
 80002e8:	bfb4      	ite	lt
 80002ea:	639d      	strlt	r5, [r3, #56]	; 0x38
 80002ec:	639d      	strge	r5, [r3, #56]	; 0x38
 80002ee:	4681      	mov	r9, r0
 80002f0:	f04f 4090 	mov.w	r0, #1207959552	; 0x48000000
 80002f4:	f000 fe72 	bl	8000fdc <HAL_GPIO_WritePin>
 80002f8:	f1ba 0f00 	cmp.w	sl, #0
 80002fc:	f04f 4380 	mov.w	r3, #1073741824	; 0x40000000
 8000300:	bfb5      	itete	lt
 8000302:	f1c8 0200 	rsblt	r2, r8, #0
 8000306:	2201      	movge	r2, #1
 8000308:	641a      	strlt	r2, [r3, #64]	; 0x40
 800030a:	f8c3 8040 	strge.w	r8, [r3, #64]	; 0x40
 800030e:	bfae      	itee	ge
 8000310:	4611      	movge	r1, r2
 8000312:	2200      	movlt	r2, #0
 8000314:	2101      	movlt	r1, #1
 8000316:	4811      	ldr	r0, [pc, #68]	; (800035c <HAL_TIM_PeriodElapsedCallback+0xf0>)
 8000318:	f000 fe60 	bl	8000fdc <HAL_GPIO_WritePin>
 800031c:	f1b9 0f00 	cmp.w	r9, #0
 8000320:	f04f 4380 	mov.w	r3, #1073741824	; 0x40000000
 8000324:	bfbb      	ittet	lt
 8000326:	4264      	neglt	r4, r4
 8000328:	635c      	strlt	r4, [r3, #52]	; 0x34
 800032a:	635c      	strge	r4, [r3, #52]	; 0x34
 800032c:	2200      	movlt	r2, #0
 800032e:	e8bd 47f0 	ldmia.w	sp!, {r4, r5, r6, r7, r8, r9, sl, lr}
 8000332:	bfa8      	it	ge
 8000334:	2201      	movge	r2, #1
 8000336:	2104      	movs	r1, #4
 8000338:	f04f 4090 	mov.w	r0, #1207959552	; 0x48000000
 800033c:	f000 be4e 	b.w	8000fdc <HAL_GPIO_WritePin>
 8000340:	40000800 	.word	0x40000800
 8000344:	20000000 	.word	0x20000000
 8000348:	ffff0001 	.word	0xffff0001
 800034c:	40000400 	.word	0x40000400
 8000350:	2000000c 	.word	0x2000000c
 8000354:	40012c00 	.word	0x40012c00
 8000358:	20000018 	.word	0x20000018
 800035c:	48000400 	.word	0x48000400
 8000360:	200001c8 	.word	0x200001c8

08000364 <enableMotorDrivers>:
 8000364:	4a02      	ldr	r2, [pc, #8]	; (8000370 <enableMotorDrivers+0xc>)
 8000366:	4803      	ldr	r0, [pc, #12]	; (8000374 <enableMotorDrivers+0x10>)
 8000368:	2302      	movs	r3, #2
 800036a:	2100      	movs	r1, #0
 800036c:	f003 b878 	b.w	8003460 <HAL_TIM_PWM_Start_DMA>
 8000370:	20000024 	.word	0x20000024
 8000374:	2000039c 	.word	0x2000039c

08000378 <SystemClock_Config>:
 8000378:	b510      	push	{r4, lr}
 800037a:	b0a4      	sub	sp, #144	; 0x90
 800037c:	2414      	movs	r4, #20
 800037e:	2238      	movs	r2, #56	; 0x38
 8000380:	2100      	movs	r1, #0
 8000382:	a805      	add	r0, sp, #20
 8000384:	f004 fdee 	bl	8004f64 <memset>
 8000388:	4622      	mov	r2, r4
 800038a:	2100      	movs	r1, #0
 800038c:	4668      	mov	r0, sp
 800038e:	f004 fde9 	bl	8004f64 <memset>
 8000392:	2244      	movs	r2, #68	; 0x44
 8000394:	2100      	movs	r1, #0
 8000396:	a813      	add	r0, sp, #76	; 0x4c
 8000398:	f004 fde4 	bl	8004f64 <memset>
 800039c:	2000      	movs	r0, #0
 800039e:	f001 fcd1 	bl	8001d44 <HAL_PWREx_ControlVoltageScaling>
 80003a2:	2322      	movs	r3, #34	; 0x22
 80003a4:	f44f 7080 	mov.w	r0, #256	; 0x100
 80003a8:	9305      	str	r3, [sp, #20]
 80003aa:	2340      	movs	r3, #64	; 0x40
 80003ac:	e9cd 0308 	strd	r0, r3, [sp, #32]
 80003b0:	2201      	movs	r2, #1
 80003b2:	2302      	movs	r3, #2
 80003b4:	eb0d 0004 	add.w	r0, sp, r4
 80003b8:	e9cd 230b 	strd	r2, r3, [sp, #44]	; 0x2c
 80003bc:	e9cd 320d 	strd	r3, r2, [sp, #52]	; 0x34
 80003c0:	e9cd 430f 	strd	r4, r3, [sp, #60]	; 0x3c
 80003c4:	e9cd 3311 	strd	r3, r3, [sp, #68]	; 0x44
 80003c8:	f001 fd16 	bl	8001df8 <HAL_RCC_OscConfig>
 80003cc:	b108      	cbz	r0, 80003d2 <SystemClock_Config+0x5a>
 80003ce:	b672      	cpsid	i
 80003d0:	e7fe      	b.n	80003d0 <SystemClock_Config+0x58>
 80003d2:	e9cd 0002 	strd	r0, r0, [sp, #8]
 80003d6:	220f      	movs	r2, #15
 80003d8:	2303      	movs	r3, #3
 80003da:	9004      	str	r0, [sp, #16]
 80003dc:	2104      	movs	r1, #4
 80003de:	4668      	mov	r0, sp
 80003e0:	e9cd 2300 	strd	r2, r3, [sp]
 80003e4:	f001 ff4e 	bl	8002284 <HAL_RCC_ClockConfig>
 80003e8:	b108      	cbz	r0, 80003ee <SystemClock_Config+0x76>
 80003ea:	b672      	cpsid	i
 80003ec:	e7fe      	b.n	80003ec <SystemClock_Config+0x74>
 80003ee:	f44f 5300 	mov.w	r3, #8192	; 0x2000
 80003f2:	9020      	str	r0, [sp, #128]	; 0x80
 80003f4:	a813      	add	r0, sp, #76	; 0x4c
 80003f6:	9313      	str	r3, [sp, #76]	; 0x4c
 80003f8:	f002 f838 	bl	800246c <HAL_RCCEx_PeriphCLKConfig>
 80003fc:	b108      	cbz	r0, 8000402 <SystemClock_Config+0x8a>
 80003fe:	b672      	cpsid	i
 8000400:	e7fe      	b.n	8000400 <SystemClock_Config+0x88>
 8000402:	b024      	add	sp, #144	; 0x90
 8000404:	bd10      	pop	{r4, pc}
	...

08000408 <main>:
 8000408:	b580      	push	{r7, lr}
 800040a:	4da2      	ldr	r5, [pc, #648]	; (8000694 <main+0x28c>)
 800040c:	4fa2      	ldr	r7, [pc, #648]	; (8000698 <main+0x290>)
 800040e:	b09c      	sub	sp, #112	; 0x70
 8000410:	f000 fc34 	bl	8000c7c <HAL_Init>
 8000414:	f7ff ffb0 	bl	8000378 <SystemClock_Config>
 8000418:	2214      	movs	r2, #20
 800041a:	2100      	movs	r1, #0
 800041c:	a80f      	add	r0, sp, #60	; 0x3c
 800041e:	f004 fda1 	bl	8004f64 <memset>
 8000422:	6ceb      	ldr	r3, [r5, #76]	; 0x4c
 8000424:	f043 0301 	orr.w	r3, r3, #1
 8000428:	64eb      	str	r3, [r5, #76]	; 0x4c
 800042a:	6ceb      	ldr	r3, [r5, #76]	; 0x4c
 800042c:	f003 0301 	and.w	r3, r3, #1
 8000430:	9303      	str	r3, [sp, #12]
 8000432:	9b03      	ldr	r3, [sp, #12]
 8000434:	6ceb      	ldr	r3, [r5, #76]	; 0x4c
 8000436:	f043 0302 	orr.w	r3, r3, #2
 800043a:	64eb      	str	r3, [r5, #76]	; 0x4c
 800043c:	6ceb      	ldr	r3, [r5, #76]	; 0x4c
 800043e:	f003 0302 	and.w	r3, r3, #2
 8000442:	2200      	movs	r2, #0
 8000444:	9304      	str	r3, [sp, #16]
 8000446:	f240 4105 	movw	r1, #1029	; 0x405
 800044a:	f04f 4090 	mov.w	r0, #1207959552	; 0x48000000
 800044e:	2400      	movs	r4, #0
 8000450:	2601      	movs	r6, #1
 8000452:	9b04      	ldr	r3, [sp, #16]
 8000454:	f000 fdc2 	bl	8000fdc <HAL_GPIO_WritePin>
 8000458:	f240 4305 	movw	r3, #1029	; 0x405
 800045c:	a90f      	add	r1, sp, #60	; 0x3c
 800045e:	f04f 4090 	mov.w	r0, #1207959552	; 0x48000000
 8000462:	e9cd 360f 	strd	r3, r6, [sp, #60]	; 0x3c
 8000466:	e9cd 4411 	strd	r4, r4, [sp, #68]	; 0x44
 800046a:	f000 fceb 	bl	8000e44 <HAL_GPIO_Init>
 800046e:	6cab      	ldr	r3, [r5, #72]	; 0x48
 8000470:	f043 0304 	orr.w	r3, r3, #4
 8000474:	64ab      	str	r3, [r5, #72]	; 0x48
 8000476:	6cab      	ldr	r3, [r5, #72]	; 0x48
 8000478:	f003 0304 	and.w	r3, r3, #4
 800047c:	9301      	str	r3, [sp, #4]
 800047e:	9b01      	ldr	r3, [sp, #4]
 8000480:	6cab      	ldr	r3, [r5, #72]	; 0x48
 8000482:	4333      	orrs	r3, r6
 8000484:	64ab      	str	r3, [r5, #72]	; 0x48
 8000486:	6cab      	ldr	r3, [r5, #72]	; 0x48
 8000488:	4033      	ands	r3, r6
 800048a:	4622      	mov	r2, r4
 800048c:	4621      	mov	r1, r4
 800048e:	9302      	str	r3, [sp, #8]
 8000490:	200b      	movs	r0, #11
 8000492:	9b02      	ldr	r3, [sp, #8]
 8000494:	f000 fc26 	bl	8000ce4 <HAL_NVIC_SetPriority>
 8000498:	200b      	movs	r0, #11
 800049a:	f000 fc55 	bl	8000d48 <HAL_NVIC_EnableIRQ>
 800049e:	f004 fb05 	bl	8004aac <MX_USB_Device_Init>
 80004a2:	4621      	mov	r1, r4
 80004a4:	2220      	movs	r2, #32
 80004a6:	a810      	add	r0, sp, #64	; 0x40
 80004a8:	f004 fd5c 	bl	8004f64 <memset>
 80004ac:	4b7b      	ldr	r3, [pc, #492]	; (800069c <main+0x294>)
 80004ae:	940a      	str	r4, [sp, #40]	; 0x28
 80004b0:	f64f 75ff 	movw	r5, #65535	; 0xffff
 80004b4:	f04f 0803 	mov.w	r8, #3
 80004b8:	a90f      	add	r1, sp, #60	; 0x3c
 80004ba:	4638      	mov	r0, r7
 80004bc:	e9cd 4408 	strd	r4, r4, [sp, #32]
 80004c0:	e9c7 3400 	strd	r3, r4, [r7]
 80004c4:	e9c7 5403 	strd	r5, r4, [r7, #12]
 80004c8:	e9c7 4405 	strd	r4, r4, [r7, #20]
 80004cc:	60bc      	str	r4, [r7, #8]
 80004ce:	f8cd 803c 	str.w	r8, [sp, #60]	; 0x3c
 80004d2:	9611      	str	r6, [sp, #68]	; 0x44
 80004d4:	9615      	str	r6, [sp, #84]	; 0x54
 80004d6:	f002 fcff 	bl	8002ed8 <HAL_TIM_Encoder_Init>
 80004da:	b108      	cbz	r0, 80004e0 <main+0xd8>
 80004dc:	b672      	cpsid	i
 80004de:	e7fe      	b.n	80004de <main+0xd6>
 80004e0:	e9cd 0008 	strd	r0, r0, [sp, #32]
 80004e4:	900a      	str	r0, [sp, #40]	; 0x28
 80004e6:	a908      	add	r1, sp, #32
 80004e8:	4638      	mov	r0, r7
 80004ea:	f002 ffbb 	bl	8003464 <HAL_TIMEx_MasterConfigSynchronization>
 80004ee:	4604      	mov	r4, r0
 80004f0:	b108      	cbz	r0, 80004f6 <main+0xee>
 80004f2:	b672      	cpsid	i
 80004f4:	e7fe      	b.n	80004f4 <main+0xec>
 80004f6:	4f6a      	ldr	r7, [pc, #424]	; (80006a0 <main+0x298>)
 80004f8:	4601      	mov	r1, r0
 80004fa:	2220      	movs	r2, #32
 80004fc:	a810      	add	r0, sp, #64	; 0x40
 80004fe:	f004 fd31 	bl	8004f64 <memset>
 8000502:	4b68      	ldr	r3, [pc, #416]	; (80006a4 <main+0x29c>)
 8000504:	940a      	str	r4, [sp, #40]	; 0x28
 8000506:	a90f      	add	r1, sp, #60	; 0x3c
 8000508:	4638      	mov	r0, r7
 800050a:	e9cd 4408 	strd	r4, r4, [sp, #32]
 800050e:	e9c7 3400 	strd	r3, r4, [r7]
 8000512:	e9c7 4502 	strd	r4, r5, [r7, #8]
 8000516:	613c      	str	r4, [r7, #16]
 8000518:	61bc      	str	r4, [r7, #24]
 800051a:	f8cd 803c 	str.w	r8, [sp, #60]	; 0x3c
 800051e:	9611      	str	r6, [sp, #68]	; 0x44
 8000520:	9615      	str	r6, [sp, #84]	; 0x54
 8000522:	f002 fcd9 	bl	8002ed8 <HAL_TIM_Encoder_Init>
 8000526:	b108      	cbz	r0, 800052c <main+0x124>
 8000528:	b672      	cpsid	i
 800052a:	e7fe      	b.n	800052a <main+0x122>
 800052c:	9008      	str	r0, [sp, #32]
 800052e:	900a      	str	r0, [sp, #40]	; 0x28
 8000530:	a908      	add	r1, sp, #32
 8000532:	4638      	mov	r0, r7
 8000534:	f002 ff96 	bl	8003464 <HAL_TIMEx_MasterConfigSynchronization>
 8000538:	4604      	mov	r4, r0
 800053a:	b108      	cbz	r0, 8000540 <main+0x138>
 800053c:	b672      	cpsid	i
 800053e:	e7fe      	b.n	800053e <main+0x136>
 8000540:	4f59      	ldr	r7, [pc, #356]	; (80006a8 <main+0x2a0>)
 8000542:	4601      	mov	r1, r0
 8000544:	2220      	movs	r2, #32
 8000546:	a810      	add	r0, sp, #64	; 0x40
 8000548:	f004 fd0c 	bl	8004f64 <memset>
 800054c:	4b57      	ldr	r3, [pc, #348]	; (80006ac <main+0x2a4>)
 800054e:	940a      	str	r4, [sp, #40]	; 0x28
 8000550:	a90f      	add	r1, sp, #60	; 0x3c
 8000552:	4638      	mov	r0, r7
 8000554:	e9cd 4408 	strd	r4, r4, [sp, #32]
 8000558:	e9c7 3400 	strd	r3, r4, [r7]
 800055c:	e9c7 4502 	strd	r4, r5, [r7, #8]
 8000560:	613c      	str	r4, [r7, #16]
 8000562:	61bc      	str	r4, [r7, #24]
 8000564:	960f      	str	r6, [sp, #60]	; 0x3c
 8000566:	9611      	str	r6, [sp, #68]	; 0x44
 8000568:	9615      	str	r6, [sp, #84]	; 0x54
 800056a:	f002 fcb5 	bl	8002ed8 <HAL_TIM_Encoder_Init>
 800056e:	b108      	cbz	r0, 8000574 <main+0x16c>
 8000570:	b672      	cpsid	i
 8000572:	e7fe      	b.n	8000572 <main+0x16a>
 8000574:	9008      	str	r0, [sp, #32]
 8000576:	900a      	str	r0, [sp, #40]	; 0x28
 8000578:	a908      	add	r1, sp, #32
 800057a:	4638      	mov	r0, r7
 800057c:	f002 ff72 	bl	8003464 <HAL_TIMEx_MasterConfigSynchronization>
 8000580:	4604      	mov	r4, r0
 8000582:	b108      	cbz	r0, 8000588 <main+0x180>
 8000584:	b672      	cpsid	i
 8000586:	e7fe      	b.n	8000586 <main+0x17e>
 8000588:	4e49      	ldr	r6, [pc, #292]	; (80006b0 <main+0x2a8>)
 800058a:	900a      	str	r0, [sp, #40]	; 0x28
 800058c:	e9cd 0008 	strd	r0, r0, [sp, #32]
 8000590:	4601      	mov	r1, r0
 8000592:	221c      	movs	r2, #28
 8000594:	a80f      	add	r0, sp, #60	; 0x3c
 8000596:	f004 fce5 	bl	8004f64 <memset>
 800059a:	f04f 4380 	mov.w	r3, #1073741824	; 0x40000000
 800059e:	4630      	mov	r0, r6
 80005a0:	e9c6 3400 	strd	r3, r4, [r6]
 80005a4:	e9c6 4502 	strd	r4, r5, [r6, #8]
 80005a8:	6134      	str	r4, [r6, #16]
 80005aa:	61b4      	str	r4, [r6, #24]
 80005ac:	f002 fc64 	bl	8002e78 <HAL_TIM_PWM_Init>
 80005b0:	b108      	cbz	r0, 80005b6 <main+0x1ae>
 80005b2:	b672      	cpsid	i
 80005b4:	e7fe      	b.n	80005b4 <main+0x1ac>
 80005b6:	9008      	str	r0, [sp, #32]
 80005b8:	900a      	str	r0, [sp, #40]	; 0x28
 80005ba:	a908      	add	r1, sp, #32
 80005bc:	4630      	mov	r0, r6
 80005be:	f002 ff51 	bl	8003464 <HAL_TIMEx_MasterConfigSynchronization>
 80005c2:	4602      	mov	r2, r0
 80005c4:	b108      	cbz	r0, 80005ca <main+0x1c2>
 80005c6:	b672      	cpsid	i
 80005c8:	e7fe      	b.n	80005c8 <main+0x1c0>
 80005ca:	2360      	movs	r3, #96	; 0x60
 80005cc:	e9cd 300f 	strd	r3, r0, [sp, #60]	; 0x3c
 80005d0:	9011      	str	r0, [sp, #68]	; 0x44
 80005d2:	9013      	str	r0, [sp, #76]	; 0x4c
 80005d4:	a90f      	add	r1, sp, #60	; 0x3c
 80005d6:	4630      	mov	r0, r6
 80005d8:	f002 fd1a 	bl	8003010 <HAL_TIM_PWM_ConfigChannel>
 80005dc:	b108      	cbz	r0, 80005e2 <main+0x1da>
 80005de:	b672      	cpsid	i
 80005e0:	e7fe      	b.n	80005e0 <main+0x1d8>
 80005e2:	2204      	movs	r2, #4
 80005e4:	a90f      	add	r1, sp, #60	; 0x3c
 80005e6:	4630      	mov	r0, r6
 80005e8:	f002 fd12 	bl	8003010 <HAL_TIM_PWM_ConfigChannel>
 80005ec:	b108      	cbz	r0, 80005f2 <main+0x1ea>
 80005ee:	b672      	cpsid	i
 80005f0:	e7fe      	b.n	80005f0 <main+0x1e8>
 80005f2:	482f      	ldr	r0, [pc, #188]	; (80006b0 <main+0x2a8>)
 80005f4:	220c      	movs	r2, #12
 80005f6:	a90f      	add	r1, sp, #60	; 0x3c
 80005f8:	f002 fd0a 	bl	8003010 <HAL_TIM_PWM_ConfigChannel>
 80005fc:	4605      	mov	r5, r0
 80005fe:	b108      	cbz	r0, 8000604 <main+0x1fc>
 8000600:	b672      	cpsid	i
 8000602:	e7fe      	b.n	8000602 <main+0x1fa>
 8000604:	482a      	ldr	r0, [pc, #168]	; (80006b0 <main+0x2a8>)
 8000606:	4c2b      	ldr	r4, [pc, #172]	; (80006b4 <main+0x2ac>)
 8000608:	f000 fa48 	bl	8000a9c <HAL_TIM_MspPostInit>
 800060c:	221c      	movs	r2, #28
 800060e:	4629      	mov	r1, r5
 8000610:	a808      	add	r0, sp, #32
 8000612:	f004 fca7 	bl	8004f64 <memset>
 8000616:	4629      	mov	r1, r5
 8000618:	2234      	movs	r2, #52	; 0x34
 800061a:	a80f      	add	r0, sp, #60	; 0x3c
 800061c:	f004 fca2 	bl	8004f64 <memset>
 8000620:	4925      	ldr	r1, [pc, #148]	; (80006b8 <main+0x2b0>)
 8000622:	60a5      	str	r5, [r4, #8]
 8000624:	234f      	movs	r3, #79	; 0x4f
 8000626:	e9c4 1300 	strd	r1, r3, [r4]
 800062a:	4620      	mov	r0, r4
 800062c:	f649 433f 	movw	r3, #39999	; 0x9c3f
 8000630:	e9c4 3503 	strd	r3, r5, [r4, #12]
 8000634:	e9c4 5505 	strd	r5, r5, [r4, #20]
 8000638:	f002 fbee 	bl	8002e18 <HAL_TIM_Base_Init>
 800063c:	b108      	cbz	r0, 8000642 <main+0x23a>
 800063e:	b672      	cpsid	i
 8000640:	e7fe      	b.n	8000640 <main+0x238>
 8000642:	4620      	mov	r0, r4
 8000644:	f002 fc18 	bl	8002e78 <HAL_TIM_PWM_Init>
 8000648:	4602      	mov	r2, r0
 800064a:	b108      	cbz	r0, 8000650 <main+0x248>
 800064c:	b672      	cpsid	i
 800064e:	e7fe      	b.n	800064e <main+0x246>
 8000650:	2660      	movs	r6, #96	; 0x60
 8000652:	e9cd 6008 	strd	r6, r0, [sp, #32]
 8000656:	e9cd 000a 	strd	r0, r0, [sp, #40]	; 0x28
 800065a:	e9cd 000c 	strd	r0, r0, [sp, #48]	; 0x30
 800065e:	900e      	str	r0, [sp, #56]	; 0x38
 8000660:	a908      	add	r1, sp, #32
 8000662:	4620      	mov	r0, r4
 8000664:	f002 fcd4 	bl	8003010 <HAL_TIM_PWM_ConfigChannel>
 8000668:	b108      	cbz	r0, 800066e <main+0x266>
 800066a:	b672      	cpsid	i
 800066c:	e7fe      	b.n	800066c <main+0x264>
 800066e:	f44f 5300 	mov.w	r3, #8192	; 0x2000
 8000672:	e9cd 000f 	strd	r0, r0, [sp, #60]	; 0x3c
 8000676:	e9cd 0011 	strd	r0, r0, [sp, #68]	; 0x44
 800067a:	e9cd 3014 	strd	r3, r0, [sp, #80]	; 0x50
 800067e:	9013      	str	r0, [sp, #76]	; 0x4c
 8000680:	901b      	str	r0, [sp, #108]	; 0x6c
 8000682:	a90f      	add	r1, sp, #60	; 0x3c
 8000684:	4620      	mov	r0, r4
 8000686:	f002 ff31 	bl	80034ec <HAL_TIMEx_ConfigBreakDeadTime>
 800068a:	4605      	mov	r5, r0
 800068c:	b1b0      	cbz	r0, 80006bc <main+0x2b4>
 800068e:	b672      	cpsid	i
 8000690:	e7fe      	b.n	8000690 <main+0x288>
 8000692:	bf00      	nop
 8000694:	40021000 	.word	0x40021000
 8000698:	200001d4 	.word	0x200001d4
 800069c:	40012c00 	.word	0x40012c00
 80006a0:	200002b8 	.word	0x200002b8
 80006a4:	40000400 	.word	0x40000400
 80006a8:	20000304 	.word	0x20000304
 80006ac:	40000800 	.word	0x40000800
 80006b0:	2000026c 	.word	0x2000026c
 80006b4:	20000220 	.word	0x20000220
 80006b8:	40014400 	.word	0x40014400
 80006bc:	4620      	mov	r0, r4
 80006be:	f000 f9ed 	bl	8000a9c <HAL_TIM_MspPostInit>
 80006c2:	4c60      	ldr	r4, [pc, #384]	; (8000844 <main+0x43c>)
 80006c4:	4a60      	ldr	r2, [pc, #384]	; (8000848 <main+0x440>)
 80006c6:	9511      	str	r5, [sp, #68]	; 0x44
 80006c8:	2318      	movs	r3, #24
 80006ca:	e9c4 2300 	strd	r2, r3, [r4]
 80006ce:	4620      	mov	r0, r4
 80006d0:	f64f 13ff 	movw	r3, #63999	; 0xf9ff
 80006d4:	e9cd 550f 	strd	r5, r5, [sp, #60]	; 0x3c
 80006d8:	60a5      	str	r5, [r4, #8]
 80006da:	60e3      	str	r3, [r4, #12]
 80006dc:	61a5      	str	r5, [r4, #24]
 80006de:	f002 fb9b 	bl	8002e18 <HAL_TIM_Base_Init>
 80006e2:	b108      	cbz	r0, 80006e8 <main+0x2e0>
 80006e4:	b672      	cpsid	i
 80006e6:	e7fe      	b.n	80006e6 <main+0x2de>
 80006e8:	900f      	str	r0, [sp, #60]	; 0x3c
 80006ea:	9011      	str	r0, [sp, #68]	; 0x44
 80006ec:	a90f      	add	r1, sp, #60	; 0x3c
 80006ee:	4620      	mov	r0, r4
 80006f0:	f002 feb8 	bl	8003464 <HAL_TIMEx_MasterConfigSynchronization>
 80006f4:	4604      	mov	r4, r0
 80006f6:	b108      	cbz	r0, 80006fc <main+0x2f4>
 80006f8:	b672      	cpsid	i
 80006fa:	e7fe      	b.n	80006fa <main+0x2f2>
 80006fc:	4601      	mov	r1, r0
 80006fe:	e9cd 0005 	strd	r0, r0, [sp, #20]
 8000702:	9007      	str	r0, [sp, #28]
 8000704:	221c      	movs	r2, #28
 8000706:	a808      	add	r0, sp, #32
 8000708:	f004 fc2c 	bl	8004f64 <memset>
 800070c:	2234      	movs	r2, #52	; 0x34
 800070e:	4621      	mov	r1, r4
 8000710:	a80f      	add	r0, sp, #60	; 0x3c
 8000712:	f004 fc27 	bl	8004f64 <memset>
 8000716:	4d4d      	ldr	r5, [pc, #308]	; (800084c <main+0x444>)
 8000718:	4b4d      	ldr	r3, [pc, #308]	; (8000850 <main+0x448>)
 800071a:	60ac      	str	r4, [r5, #8]
 800071c:	e9c5 3400 	strd	r3, r4, [r5]
 8000720:	4628      	mov	r0, r5
 8000722:	f643 637f 	movw	r3, #15999	; 0x3e7f
 8000726:	e9c5 3403 	strd	r3, r4, [r5, #12]
 800072a:	e9c5 4405 	strd	r4, r4, [r5, #20]
 800072e:	f002 fba3 	bl	8002e78 <HAL_TIM_PWM_Init>
 8000732:	b108      	cbz	r0, 8000738 <main+0x330>
 8000734:	b672      	cpsid	i
 8000736:	e7fe      	b.n	8000736 <main+0x32e>
 8000738:	e9cd 0005 	strd	r0, r0, [sp, #20]
 800073c:	9007      	str	r0, [sp, #28]
 800073e:	a905      	add	r1, sp, #20
 8000740:	4628      	mov	r0, r5
 8000742:	f002 fe8f 	bl	8003464 <HAL_TIMEx_MasterConfigSynchronization>
 8000746:	4602      	mov	r2, r0
 8000748:	b108      	cbz	r0, 800074e <main+0x346>
 800074a:	b672      	cpsid	i
 800074c:	e7fe      	b.n	800074c <main+0x344>
 800074e:	2302      	movs	r3, #2
 8000750:	e9cd 300a 	strd	r3, r0, [sp, #40]	; 0x28
 8000754:	f44f 7380 	mov.w	r3, #256	; 0x100
 8000758:	e9cd 6008 	strd	r6, r0, [sp, #32]
 800075c:	e9cd 300d 	strd	r3, r0, [sp, #52]	; 0x34
 8000760:	900c      	str	r0, [sp, #48]	; 0x30
 8000762:	a908      	add	r1, sp, #32
 8000764:	4628      	mov	r0, r5
 8000766:	f002 fc53 	bl	8003010 <HAL_TIM_PWM_ConfigChannel>
 800076a:	b108      	cbz	r0, 8000770 <main+0x368>
 800076c:	b672      	cpsid	i
 800076e:	e7fe      	b.n	800076e <main+0x366>
 8000770:	2300      	movs	r3, #0
 8000772:	f44f 5200 	mov.w	r2, #8192	; 0x2000
 8000776:	e9cd 2314 	strd	r2, r3, [sp, #80]	; 0x50
 800077a:	4834      	ldr	r0, [pc, #208]	; (800084c <main+0x444>)
 800077c:	9313      	str	r3, [sp, #76]	; 0x4c
 800077e:	f04f 7200 	mov.w	r2, #33554432	; 0x2000000
 8000782:	a90f      	add	r1, sp, #60	; 0x3c
 8000784:	e9cd 330f 	strd	r3, r3, [sp, #60]	; 0x3c
 8000788:	e9cd 3311 	strd	r3, r3, [sp, #68]	; 0x44
 800078c:	e9cd 3316 	strd	r3, r3, [sp, #88]	; 0x58
 8000790:	e9cd 2318 	strd	r2, r3, [sp, #96]	; 0x60
 8000794:	e9cd 331a 	strd	r3, r3, [sp, #104]	; 0x68
 8000798:	f002 fea8 	bl	80034ec <HAL_TIMEx_ConfigBreakDeadTime>
 800079c:	4604      	mov	r4, r0
 800079e:	b108      	cbz	r0, 80007a4 <main+0x39c>
 80007a0:	b672      	cpsid	i
 80007a2:	e7fe      	b.n	80007a2 <main+0x39a>
 80007a4:	4829      	ldr	r0, [pc, #164]	; (800084c <main+0x444>)
 80007a6:	4e2b      	ldr	r6, [pc, #172]	; (8000854 <main+0x44c>)
 80007a8:	4d2b      	ldr	r5, [pc, #172]	; (8000858 <main+0x450>)
 80007aa:	f000 f977 	bl	8000a9c <HAL_TIM_MspPostInit>
 80007ae:	f64a 23aa 	movw	r3, #43690	; 0xaaaa
 80007b2:	2104      	movs	r1, #4
 80007b4:	4829      	ldr	r0, [pc, #164]	; (800085c <main+0x454>)
 80007b6:	f8ad 3042 	strh.w	r3, [sp, #66]	; 0x42
 80007ba:	f8ad 403c 	strh.w	r4, [sp, #60]	; 0x3c
 80007be:	f8ad 403e 	strh.w	r4, [sp, #62]	; 0x3e
 80007c2:	f8ad 4040 	strh.w	r4, [sp, #64]	; 0x40
 80007c6:	f002 f903 	bl	80029d0 <HAL_TIM_Encoder_Start>
 80007ca:	2104      	movs	r1, #4
 80007cc:	4824      	ldr	r0, [pc, #144]	; (8000860 <main+0x458>)
 80007ce:	f002 f8ff 	bl	80029d0 <HAL_TIM_Encoder_Start>
 80007d2:	2104      	movs	r1, #4
 80007d4:	4823      	ldr	r0, [pc, #140]	; (8000864 <main+0x45c>)
 80007d6:	f002 f8fb 	bl	80029d0 <HAL_TIM_Encoder_Start>
 80007da:	4621      	mov	r1, r4
 80007dc:	4822      	ldr	r0, [pc, #136]	; (8000868 <main+0x460>)
 80007de:	f002 fd2d 	bl	800323c <HAL_TIM_PWM_Start>
 80007e2:	2104      	movs	r1, #4
 80007e4:	4820      	ldr	r0, [pc, #128]	; (8000868 <main+0x460>)
 80007e6:	f002 fd29 	bl	800323c <HAL_TIM_PWM_Start>
 80007ea:	210c      	movs	r1, #12
 80007ec:	481e      	ldr	r0, [pc, #120]	; (8000868 <main+0x460>)
 80007ee:	f002 fd25 	bl	800323c <HAL_TIM_PWM_Start>
 80007f2:	4621      	mov	r1, r4
 80007f4:	481d      	ldr	r0, [pc, #116]	; (800086c <main+0x464>)
 80007f6:	4c1e      	ldr	r4, [pc, #120]	; (8000870 <main+0x468>)
 80007f8:	f002 fd20 	bl	800323c <HAL_TIM_PWM_Start>
 80007fc:	4811      	ldr	r0, [pc, #68]	; (8000844 <main+0x43c>)
 80007fe:	f002 f8b1 	bl	8002964 <HAL_TIM_Base_Start_IT>
 8000802:	f7ff fdaf 	bl	8000364 <enableMotorDrivers>
 8000806:	4b1b      	ldr	r3, [pc, #108]	; (8000874 <main+0x46c>)
 8000808:	f44f 62e1 	mov.w	r2, #1800	; 0x708
 800080c:	635a      	str	r2, [r3, #52]	; 0x34
 800080e:	7823      	ldrb	r3, [r4, #0]
 8000810:	2b00      	cmp	r3, #0
 8000812:	d0fc      	beq.n	800080e <main+0x406>
 8000814:	2300      	movs	r3, #0
 8000816:	7023      	strb	r3, [r4, #0]
 8000818:	f7ff fda4 	bl	8000364 <enableMotorDrivers>
 800081c:	8833      	ldrh	r3, [r6, #0]
 800081e:	f8ad 303c 	strh.w	r3, [sp, #60]	; 0x3c
 8000822:	882b      	ldrh	r3, [r5, #0]
 8000824:	f8ad 303e 	strh.w	r3, [sp, #62]	; 0x3e
 8000828:	4b13      	ldr	r3, [pc, #76]	; (8000878 <main+0x470>)
 800082a:	881b      	ldrh	r3, [r3, #0]
 800082c:	f8ad 3040 	strh.w	r3, [sp, #64]	; 0x40
 8000830:	4b12      	ldr	r3, [pc, #72]	; (800087c <main+0x474>)
 8000832:	88da      	ldrh	r2, [r3, #6]
 8000834:	4b0f      	ldr	r3, [pc, #60]	; (8000874 <main+0x46c>)
 8000836:	2108      	movs	r1, #8
 8000838:	635a      	str	r2, [r3, #52]	; 0x34
 800083a:	a80f      	add	r0, sp, #60	; 0x3c
 800083c:	f004 f988 	bl	8004b50 <CDC_Transmit_FS>
 8000840:	e7e5      	b.n	800080e <main+0x406>
 8000842:	bf00      	nop
 8000844:	20000350 	.word	0x20000350
 8000848:	40001000 	.word	0x40001000
 800084c:	2000039c 	.word	0x2000039c
 8000850:	40013400 	.word	0x40013400
 8000854:	20000000 	.word	0x20000000
 8000858:	2000000c 	.word	0x2000000c
 800085c:	200001d4 	.word	0x200001d4
 8000860:	200002b8 	.word	0x200002b8
 8000864:	20000304 	.word	0x20000304
 8000868:	2000026c 	.word	0x2000026c
 800086c:	20000220 	.word	0x20000220
 8000870:	200003e8 	.word	0x200003e8
 8000874:	40014400 	.word	0x40014400
 8000878:	20000018 	.word	0x20000018
 800087c:	200001c8 	.word	0x200001c8

08000880 <Error_Handler>:
 8000880:	b672      	cpsid	i
 8000882:	e7fe      	b.n	8000882 <Error_Handler+0x2>

08000884 <HAL_MspInit>:
 8000884:	4b0a      	ldr	r3, [pc, #40]	; (80008b0 <HAL_MspInit+0x2c>)
 8000886:	6e1a      	ldr	r2, [r3, #96]	; 0x60
 8000888:	f042 0201 	orr.w	r2, r2, #1
 800088c:	661a      	str	r2, [r3, #96]	; 0x60
 800088e:	6e1a      	ldr	r2, [r3, #96]	; 0x60
 8000890:	b082      	sub	sp, #8
 8000892:	f002 0201 	and.w	r2, r2, #1
 8000896:	9200      	str	r2, [sp, #0]
 8000898:	9a00      	ldr	r2, [sp, #0]
 800089a:	6d9a      	ldr	r2, [r3, #88]	; 0x58
 800089c:	f042 5280 	orr.w	r2, r2, #268435456	; 0x10000000
 80008a0:	659a      	str	r2, [r3, #88]	; 0x58
 80008a2:	6d9b      	ldr	r3, [r3, #88]	; 0x58
 80008a4:	f003 5380 	and.w	r3, r3, #268435456	; 0x10000000
 80008a8:	9301      	str	r3, [sp, #4]
 80008aa:	9b01      	ldr	r3, [sp, #4]
 80008ac:	b002      	add	sp, #8
 80008ae:	4770      	bx	lr
 80008b0:	40021000 	.word	0x40021000

080008b4 <HAL_TIM_PWM_MspInit>:
 80008b4:	6803      	ldr	r3, [r0, #0]
 80008b6:	4a16      	ldr	r2, [pc, #88]	; (8000910 <HAL_TIM_PWM_MspInit+0x5c>)
 80008b8:	4293      	cmp	r3, r2
 80008ba:	b084      	sub	sp, #16
 80008bc:	d10b      	bne.n	80008d6 <HAL_TIM_PWM_MspInit+0x22>
 80008be:	4b15      	ldr	r3, [pc, #84]	; (8000914 <HAL_TIM_PWM_MspInit+0x60>)
 80008c0:	6e1a      	ldr	r2, [r3, #96]	; 0x60
 80008c2:	f442 6200 	orr.w	r2, r2, #2048	; 0x800
 80008c6:	661a      	str	r2, [r3, #96]	; 0x60
 80008c8:	6e1b      	ldr	r3, [r3, #96]	; 0x60
 80008ca:	f403 6300 	and.w	r3, r3, #2048	; 0x800
 80008ce:	9301      	str	r3, [sp, #4]
 80008d0:	9b01      	ldr	r3, [sp, #4]
 80008d2:	b004      	add	sp, #16
 80008d4:	4770      	bx	lr
 80008d6:	4a10      	ldr	r2, [pc, #64]	; (8000918 <HAL_TIM_PWM_MspInit+0x64>)
 80008d8:	4293      	cmp	r3, r2
 80008da:	d10a      	bne.n	80008f2 <HAL_TIM_PWM_MspInit+0x3e>
 80008dc:	4b0d      	ldr	r3, [pc, #52]	; (8000914 <HAL_TIM_PWM_MspInit+0x60>)
 80008de:	6e1a      	ldr	r2, [r3, #96]	; 0x60
 80008e0:	f442 5200 	orr.w	r2, r2, #8192	; 0x2000
 80008e4:	661a      	str	r2, [r3, #96]	; 0x60
 80008e6:	6e1b      	ldr	r3, [r3, #96]	; 0x60
 80008e8:	f403 5300 	and.w	r3, r3, #8192	; 0x2000
 80008ec:	9302      	str	r3, [sp, #8]
 80008ee:	9b02      	ldr	r3, [sp, #8]
 80008f0:	e7ef      	b.n	80008d2 <HAL_TIM_PWM_MspInit+0x1e>
 80008f2:	4a0a      	ldr	r2, [pc, #40]	; (800091c <HAL_TIM_PWM_MspInit+0x68>)
 80008f4:	4293      	cmp	r3, r2
 80008f6:	d1ec      	bne.n	80008d2 <HAL_TIM_PWM_MspInit+0x1e>
 80008f8:	4b06      	ldr	r3, [pc, #24]	; (8000914 <HAL_TIM_PWM_MspInit+0x60>)
 80008fa:	6e1a      	ldr	r2, [r3, #96]	; 0x60
 80008fc:	f442 3280 	orr.w	r2, r2, #65536	; 0x10000
 8000900:	661a      	str	r2, [r3, #96]	; 0x60
 8000902:	6e1b      	ldr	r3, [r3, #96]	; 0x60
 8000904:	f403 3380 	and.w	r3, r3, #65536	; 0x10000
 8000908:	9303      	str	r3, [sp, #12]
 800090a:	9b03      	ldr	r3, [sp, #12]
 800090c:	e7e1      	b.n	80008d2 <HAL_TIM_PWM_MspInit+0x1e>
 800090e:	bf00      	nop
 8000910:	40012c00 	.word	0x40012c00
 8000914:	40021000 	.word	0x40021000
 8000918:	40013400 	.word	0x40013400
 800091c:	40014000 	.word	0x40014000

08000920 <HAL_TIM_Encoder_MspInit>:
 8000920:	b530      	push	{r4, r5, lr}
 8000922:	4604      	mov	r4, r0
 8000924:	b08d      	sub	sp, #52	; 0x34
 8000926:	2214      	movs	r2, #20
 8000928:	2100      	movs	r1, #0
 800092a:	a807      	add	r0, sp, #28
 800092c:	f004 fb1a 	bl	8004f64 <memset>
 8000930:	6823      	ldr	r3, [r4, #0]
 8000932:	f1b3 4f80 	cmp.w	r3, #1073741824	; 0x40000000
 8000936:	d135      	bne.n	80009a4 <HAL_TIM_Encoder_MspInit+0x84>
 8000938:	f503 3304 	add.w	r3, r3, #135168	; 0x21000
 800093c:	2502      	movs	r5, #2
 800093e:	6d9a      	ldr	r2, [r3, #88]	; 0x58
 8000940:	f042 0201 	orr.w	r2, r2, #1
 8000944:	659a      	str	r2, [r3, #88]	; 0x58
 8000946:	6d9a      	ldr	r2, [r3, #88]	; 0x58
 8000948:	f002 0201 	and.w	r2, r2, #1
 800094c:	9200      	str	r2, [sp, #0]
 800094e:	9a00      	ldr	r2, [sp, #0]
 8000950:	6cda      	ldr	r2, [r3, #76]	; 0x4c
 8000952:	f042 0201 	orr.w	r2, r2, #1
 8000956:	64da      	str	r2, [r3, #76]	; 0x4c
 8000958:	6cda      	ldr	r2, [r3, #76]	; 0x4c
 800095a:	f002 0201 	and.w	r2, r2, #1
 800095e:	9201      	str	r2, [sp, #4]
 8000960:	9a01      	ldr	r2, [sp, #4]
 8000962:	6cda      	ldr	r2, [r3, #76]	; 0x4c
 8000964:	f042 0202 	orr.w	r2, r2, #2
 8000968:	64da      	str	r2, [r3, #76]	; 0x4c
 800096a:	6cdb      	ldr	r3, [r3, #76]	; 0x4c
 800096c:	f003 0302 	and.w	r3, r3, #2
 8000970:	9302      	str	r3, [sp, #8]
 8000972:	9b02      	ldr	r3, [sp, #8]
 8000974:	2401      	movs	r4, #1
 8000976:	f44f 4300 	mov.w	r3, #32768	; 0x8000
 800097a:	a907      	add	r1, sp, #28
 800097c:	f04f 4090 	mov.w	r0, #1207959552	; 0x48000000
 8000980:	e9cd 3507 	strd	r3, r5, [sp, #28]
 8000984:	940b      	str	r4, [sp, #44]	; 0x2c
 8000986:	f000 fa5d 	bl	8000e44 <HAL_GPIO_Init>
 800098a:	2308      	movs	r3, #8
 800098c:	e9cd 3507 	strd	r3, r5, [sp, #28]
 8000990:	2300      	movs	r3, #0
 8000992:	e9cd 3309 	strd	r3, r3, [sp, #36]	; 0x24
 8000996:	940b      	str	r4, [sp, #44]	; 0x2c
 8000998:	481c      	ldr	r0, [pc, #112]	; (8000a0c <HAL_TIM_Encoder_MspInit+0xec>)
 800099a:	a907      	add	r1, sp, #28
 800099c:	f000 fa52 	bl	8000e44 <HAL_GPIO_Init>
 80009a0:	b00d      	add	sp, #52	; 0x34
 80009a2:	bd30      	pop	{r4, r5, pc}
 80009a4:	4a1a      	ldr	r2, [pc, #104]	; (8000a10 <HAL_TIM_Encoder_MspInit+0xf0>)
 80009a6:	4293      	cmp	r3, r2
 80009a8:	d118      	bne.n	80009dc <HAL_TIM_Encoder_MspInit+0xbc>
 80009aa:	4b1a      	ldr	r3, [pc, #104]	; (8000a14 <HAL_TIM_Encoder_MspInit+0xf4>)
 80009ac:	6d9a      	ldr	r2, [r3, #88]	; 0x58
 80009ae:	f042 0202 	orr.w	r2, r2, #2
 80009b2:	659a      	str	r2, [r3, #88]	; 0x58
 80009b4:	6d9a      	ldr	r2, [r3, #88]	; 0x58
 80009b6:	f002 0202 	and.w	r2, r2, #2
 80009ba:	9203      	str	r2, [sp, #12]
 80009bc:	9a03      	ldr	r2, [sp, #12]
 80009be:	6cda      	ldr	r2, [r3, #76]	; 0x4c
 80009c0:	f042 0202 	orr.w	r2, r2, #2
 80009c4:	64da      	str	r2, [r3, #76]	; 0x4c
 80009c6:	6cdb      	ldr	r3, [r3, #76]	; 0x4c
 80009c8:	f003 0302 	and.w	r3, r3, #2
 80009cc:	9304      	str	r3, [sp, #16]
 80009ce:	9b04      	ldr	r3, [sp, #16]
 80009d0:	2330      	movs	r3, #48	; 0x30
 80009d2:	9307      	str	r3, [sp, #28]
 80009d4:	2302      	movs	r3, #2
 80009d6:	9308      	str	r3, [sp, #32]
 80009d8:	930b      	str	r3, [sp, #44]	; 0x2c
 80009da:	e7dd      	b.n	8000998 <HAL_TIM_Encoder_MspInit+0x78>
 80009dc:	4a0e      	ldr	r2, [pc, #56]	; (8000a18 <HAL_TIM_Encoder_MspInit+0xf8>)
 80009de:	4293      	cmp	r3, r2
 80009e0:	d1de      	bne.n	80009a0 <HAL_TIM_Encoder_MspInit+0x80>
 80009e2:	4b0c      	ldr	r3, [pc, #48]	; (8000a14 <HAL_TIM_Encoder_MspInit+0xf4>)
 80009e4:	6d9a      	ldr	r2, [r3, #88]	; 0x58
 80009e6:	f042 0204 	orr.w	r2, r2, #4
 80009ea:	659a      	str	r2, [r3, #88]	; 0x58
 80009ec:	6d9a      	ldr	r2, [r3, #88]	; 0x58
 80009ee:	f002 0204 	and.w	r2, r2, #4
 80009f2:	9205      	str	r2, [sp, #20]
 80009f4:	9a05      	ldr	r2, [sp, #20]
 80009f6:	6cda      	ldr	r2, [r3, #76]	; 0x4c
 80009f8:	f042 0202 	orr.w	r2, r2, #2
 80009fc:	64da      	str	r2, [r3, #76]	; 0x4c
 80009fe:	6cdb      	ldr	r3, [r3, #76]	; 0x4c
 8000a00:	f003 0302 	and.w	r3, r3, #2
 8000a04:	9306      	str	r3, [sp, #24]
 8000a06:	9b06      	ldr	r3, [sp, #24]
 8000a08:	23c0      	movs	r3, #192	; 0xc0
 8000a0a:	e7e2      	b.n	80009d2 <HAL_TIM_Encoder_MspInit+0xb2>
 8000a0c:	48000400 	.word	0x48000400
 8000a10:	40000400 	.word	0x40000400
 8000a14:	40021000 	.word	0x40021000
 8000a18:	40000800 	.word	0x40000800

08000a1c <HAL_TIM_Base_MspInit>:
 8000a1c:	b51f      	push	{r0, r1, r2, r3, r4, lr}
 8000a1e:	6803      	ldr	r3, [r0, #0]
 8000a20:	4a1a      	ldr	r2, [pc, #104]	; (8000a8c <HAL_TIM_Base_MspInit+0x70>)
 8000a22:	4293      	cmp	r3, r2
 8000a24:	d114      	bne.n	8000a50 <HAL_TIM_Base_MspInit+0x34>
 8000a26:	4b1a      	ldr	r3, [pc, #104]	; (8000a90 <HAL_TIM_Base_MspInit+0x74>)
 8000a28:	6d9a      	ldr	r2, [r3, #88]	; 0x58
 8000a2a:	f042 0210 	orr.w	r2, r2, #16
 8000a2e:	659a      	str	r2, [r3, #88]	; 0x58
 8000a30:	6d9b      	ldr	r3, [r3, #88]	; 0x58
 8000a32:	2200      	movs	r2, #0
 8000a34:	f003 0310 	and.w	r3, r3, #16
 8000a38:	9301      	str	r3, [sp, #4]
 8000a3a:	4611      	mov	r1, r2
 8000a3c:	2036      	movs	r0, #54	; 0x36
 8000a3e:	9b01      	ldr	r3, [sp, #4]
 8000a40:	f000 f950 	bl	8000ce4 <HAL_NVIC_SetPriority>
 8000a44:	2036      	movs	r0, #54	; 0x36
 8000a46:	b005      	add	sp, #20
 8000a48:	f85d eb04 	ldr.w	lr, [sp], #4
 8000a4c:	f000 b97c 	b.w	8000d48 <HAL_NVIC_EnableIRQ>
 8000a50:	4a10      	ldr	r2, [pc, #64]	; (8000a94 <HAL_TIM_Base_MspInit+0x78>)
 8000a52:	4293      	cmp	r3, r2
 8000a54:	d10c      	bne.n	8000a70 <HAL_TIM_Base_MspInit+0x54>
 8000a56:	4b0e      	ldr	r3, [pc, #56]	; (8000a90 <HAL_TIM_Base_MspInit+0x74>)
 8000a58:	6e1a      	ldr	r2, [r3, #96]	; 0x60
 8000a5a:	f442 3200 	orr.w	r2, r2, #131072	; 0x20000
 8000a5e:	661a      	str	r2, [r3, #96]	; 0x60
 8000a60:	6e1b      	ldr	r3, [r3, #96]	; 0x60
 8000a62:	f403 3300 	and.w	r3, r3, #131072	; 0x20000
 8000a66:	9302      	str	r3, [sp, #8]
 8000a68:	9b02      	ldr	r3, [sp, #8]
 8000a6a:	b005      	add	sp, #20
 8000a6c:	f85d fb04 	ldr.w	pc, [sp], #4
 8000a70:	4a09      	ldr	r2, [pc, #36]	; (8000a98 <HAL_TIM_Base_MspInit+0x7c>)
 8000a72:	4293      	cmp	r3, r2
 8000a74:	d1f9      	bne.n	8000a6a <HAL_TIM_Base_MspInit+0x4e>
 8000a76:	4b06      	ldr	r3, [pc, #24]	; (8000a90 <HAL_TIM_Base_MspInit+0x74>)
 8000a78:	6e1a      	ldr	r2, [r3, #96]	; 0x60
 8000a7a:	f442 2280 	orr.w	r2, r2, #262144	; 0x40000
 8000a7e:	661a      	str	r2, [r3, #96]	; 0x60
 8000a80:	6e1b      	ldr	r3, [r3, #96]	; 0x60
 8000a82:	f403 2380 	and.w	r3, r3, #262144	; 0x40000
 8000a86:	9303      	str	r3, [sp, #12]
 8000a88:	9b03      	ldr	r3, [sp, #12]
 8000a8a:	e7ee      	b.n	8000a6a <HAL_TIM_Base_MspInit+0x4e>
 8000a8c:	40001000 	.word	0x40001000
 8000a90:	40021000 	.word	0x40021000
 8000a94:	40014400 	.word	0x40014400
 8000a98:	40014800 	.word	0x40014800

08000a9c <HAL_TIM_MspPostInit>:
 8000a9c:	b510      	push	{r4, lr}
 8000a9e:	2214      	movs	r2, #20
 8000aa0:	b08a      	sub	sp, #40	; 0x28
 8000aa2:	4604      	mov	r4, r0
 8000aa4:	2100      	movs	r1, #0
 8000aa6:	eb0d 0002 	add.w	r0, sp, r2
 8000aaa:	f004 fa5b 	bl	8004f64 <memset>
 8000aae:	6823      	ldr	r3, [r4, #0]
 8000ab0:	4a33      	ldr	r2, [pc, #204]	; (8000b80 <HAL_TIM_MspPostInit+0xe4>)
 8000ab2:	4293      	cmp	r3, r2
 8000ab4:	d114      	bne.n	8000ae0 <HAL_TIM_MspPostInit+0x44>
 8000ab6:	4b33      	ldr	r3, [pc, #204]	; (8000b84 <HAL_TIM_MspPostInit+0xe8>)
 8000ab8:	6cda      	ldr	r2, [r3, #76]	; 0x4c
 8000aba:	f042 0201 	orr.w	r2, r2, #1
 8000abe:	64da      	str	r2, [r3, #76]	; 0x4c
 8000ac0:	6cdb      	ldr	r3, [r3, #76]	; 0x4c
 8000ac2:	f003 0301 	and.w	r3, r3, #1
 8000ac6:	9300      	str	r3, [sp, #0]
 8000ac8:	9b00      	ldr	r3, [sp, #0]
 8000aca:	f44f 7040 	mov.w	r0, #768	; 0x300
 8000ace:	2302      	movs	r3, #2
 8000ad0:	e9cd 0305 	strd	r0, r3, [sp, #20]
 8000ad4:	2306      	movs	r3, #6
 8000ad6:	9309      	str	r3, [sp, #36]	; 0x24
 8000ad8:	a905      	add	r1, sp, #20
 8000ada:	f04f 4090 	mov.w	r0, #1207959552	; 0x48000000
 8000ade:	e015      	b.n	8000b0c <HAL_TIM_MspPostInit+0x70>
 8000ae0:	4a29      	ldr	r2, [pc, #164]	; (8000b88 <HAL_TIM_MspPostInit+0xec>)
 8000ae2:	4293      	cmp	r3, r2
 8000ae4:	d116      	bne.n	8000b14 <HAL_TIM_MspPostInit+0x78>
 8000ae6:	4b27      	ldr	r3, [pc, #156]	; (8000b84 <HAL_TIM_MspPostInit+0xe8>)
 8000ae8:	4828      	ldr	r0, [pc, #160]	; (8000b8c <HAL_TIM_MspPostInit+0xf0>)
 8000aea:	6cda      	ldr	r2, [r3, #76]	; 0x4c
 8000aec:	f042 0202 	orr.w	r2, r2, #2
 8000af0:	64da      	str	r2, [r3, #76]	; 0x4c
 8000af2:	6cdb      	ldr	r3, [r3, #76]	; 0x4c
 8000af4:	f003 0302 	and.w	r3, r3, #2
 8000af8:	9301      	str	r3, [sp, #4]
 8000afa:	f44f 7180 	mov.w	r1, #256	; 0x100
 8000afe:	9b01      	ldr	r3, [sp, #4]
 8000b00:	2302      	movs	r3, #2
 8000b02:	e9cd 1305 	strd	r1, r3, [sp, #20]
 8000b06:	230a      	movs	r3, #10
 8000b08:	9309      	str	r3, [sp, #36]	; 0x24
 8000b0a:	a905      	add	r1, sp, #20
 8000b0c:	f000 f99a 	bl	8000e44 <HAL_GPIO_Init>
 8000b10:	b00a      	add	sp, #40	; 0x28
 8000b12:	bd10      	pop	{r4, pc}
 8000b14:	4a1e      	ldr	r2, [pc, #120]	; (8000b90 <HAL_TIM_MspPostInit+0xf4>)
 8000b16:	4293      	cmp	r3, r2
 8000b18:	d10f      	bne.n	8000b3a <HAL_TIM_MspPostInit+0x9e>
 8000b1a:	4b1a      	ldr	r3, [pc, #104]	; (8000b84 <HAL_TIM_MspPostInit+0xe8>)
 8000b1c:	6cda      	ldr	r2, [r3, #76]	; 0x4c
 8000b1e:	f042 0201 	orr.w	r2, r2, #1
 8000b22:	64da      	str	r2, [r3, #76]	; 0x4c
 8000b24:	6cdb      	ldr	r3, [r3, #76]	; 0x4c
 8000b26:	f003 0301 	and.w	r3, r3, #1
 8000b2a:	9302      	str	r3, [sp, #8]
 8000b2c:	9b02      	ldr	r3, [sp, #8]
 8000b2e:	2208      	movs	r2, #8
 8000b30:	2302      	movs	r3, #2
 8000b32:	e9cd 2305 	strd	r2, r3, [sp, #20]
 8000b36:	2309      	movs	r3, #9
 8000b38:	e7cd      	b.n	8000ad6 <HAL_TIM_MspPostInit+0x3a>
 8000b3a:	4a16      	ldr	r2, [pc, #88]	; (8000b94 <HAL_TIM_MspPostInit+0xf8>)
 8000b3c:	4293      	cmp	r3, r2
 8000b3e:	d10f      	bne.n	8000b60 <HAL_TIM_MspPostInit+0xc4>
 8000b40:	4b10      	ldr	r3, [pc, #64]	; (8000b84 <HAL_TIM_MspPostInit+0xe8>)
 8000b42:	6cda      	ldr	r2, [r3, #76]	; 0x4c
 8000b44:	f042 0201 	orr.w	r2, r2, #1
 8000b48:	64da      	str	r2, [r3, #76]	; 0x4c
 8000b4a:	6cdb      	ldr	r3, [r3, #76]	; 0x4c
 8000b4c:	f003 0301 	and.w	r3, r3, #1
 8000b50:	9303      	str	r3, [sp, #12]
 8000b52:	9b03      	ldr	r3, [sp, #12]
 8000b54:	2340      	movs	r3, #64	; 0x40
 8000b56:	9305      	str	r3, [sp, #20]
 8000b58:	2302      	movs	r3, #2
 8000b5a:	9306      	str	r3, [sp, #24]
 8000b5c:	2301      	movs	r3, #1
 8000b5e:	e7ba      	b.n	8000ad6 <HAL_TIM_MspPostInit+0x3a>
 8000b60:	4a0d      	ldr	r2, [pc, #52]	; (8000b98 <HAL_TIM_MspPostInit+0xfc>)
 8000b62:	4293      	cmp	r3, r2
 8000b64:	d1d4      	bne.n	8000b10 <HAL_TIM_MspPostInit+0x74>
 8000b66:	4b07      	ldr	r3, [pc, #28]	; (8000b84 <HAL_TIM_MspPostInit+0xe8>)
 8000b68:	6cda      	ldr	r2, [r3, #76]	; 0x4c
 8000b6a:	f042 0201 	orr.w	r2, r2, #1
 8000b6e:	64da      	str	r2, [r3, #76]	; 0x4c
 8000b70:	6cdb      	ldr	r3, [r3, #76]	; 0x4c
 8000b72:	f003 0301 	and.w	r3, r3, #1
 8000b76:	9304      	str	r3, [sp, #16]
 8000b78:	9b04      	ldr	r3, [sp, #16]
 8000b7a:	2380      	movs	r3, #128	; 0x80
 8000b7c:	e7eb      	b.n	8000b56 <HAL_TIM_MspPostInit+0xba>
 8000b7e:	bf00      	nop
 8000b80:	40012c00 	.word	0x40012c00
 8000b84:	40021000 	.word	0x40021000
 8000b88:	40013400 	.word	0x40013400
 8000b8c:	48000400 	.word	0x48000400
 8000b90:	40014000 	.word	0x40014000
 8000b94:	40014400 	.word	0x40014400
 8000b98:	40014800 	.word	0x40014800

08000b9c <NMI_Handler>:
 8000b9c:	e7fe      	b.n	8000b9c <NMI_Handler>

08000b9e <HardFault_Handler>:
 8000b9e:	e7fe      	b.n	8000b9e <HardFault_Handler>

08000ba0 <MemManage_Handler>:
 8000ba0:	e7fe      	b.n	8000ba0 <MemManage_Handler>

08000ba2 <BusFault_Handler>:
 8000ba2:	e7fe      	b.n	8000ba2 <BusFault_Handler>

08000ba4 <UsageFault_Handler>:
 8000ba4:	e7fe      	b.n	8000ba4 <UsageFault_Handler>

08000ba6 <SVC_Handler>:
 8000ba6:	4770      	bx	lr

08000ba8 <DebugMon_Handler>:
 8000ba8:	4770      	bx	lr

08000baa <PendSV_Handler>:
 8000baa:	4770      	bx	lr

08000bac <SysTick_Handler>:
 8000bac:	f000 b876 	b.w	8000c9c <HAL_IncTick>

08000bb0 <USB_LP_IRQHandler>:
 8000bb0:	4801      	ldr	r0, [pc, #4]	; (8000bb8 <USB_LP_IRQHandler+0x8>)
 8000bb2:	f000 ba9f 	b.w	80010f4 <HAL_PCD_IRQHandler>
 8000bb6:	bf00      	nop
 8000bb8:	20001094 	.word	0x20001094

08000bbc <TIM6_DAC_IRQHandler>:
 8000bbc:	4801      	ldr	r0, [pc, #4]	; (8000bc4 <TIM6_DAC_IRQHandler+0x8>)
 8000bbe:	f001 bfb8 	b.w	8002b32 <HAL_TIM_IRQHandler>
 8000bc2:	bf00      	nop
 8000bc4:	20000350 	.word	0x20000350

08000bc8 <SystemInit>:
 8000bc8:	4a03      	ldr	r2, [pc, #12]	; (8000bd8 <SystemInit+0x10>)
 8000bca:	f8d2 3088 	ldr.w	r3, [r2, #136]	; 0x88
 8000bce:	f443 0370 	orr.w	r3, r3, #15728640	; 0xf00000
 8000bd2:	f8c2 3088 	str.w	r3, [r2, #136]	; 0x88
 8000bd6:	4770      	bx	lr
 8000bd8:	e000ed00 	.word	0xe000ed00

08000bdc <Reset_Handler>:
 8000bdc:	480d      	ldr	r0, [pc, #52]	; (8000c14 <LoopForever+0x2>)
 8000bde:	4685      	mov	sp, r0
 8000be0:	480d      	ldr	r0, [pc, #52]	; (8000c18 <LoopForever+0x6>)
 8000be2:	490e      	ldr	r1, [pc, #56]	; (8000c1c <LoopForever+0xa>)
 8000be4:	4a0e      	ldr	r2, [pc, #56]	; (8000c20 <LoopForever+0xe>)
 8000be6:	2300      	movs	r3, #0
 8000be8:	e002      	b.n	8000bf0 <LoopCopyDataInit>

08000bea <CopyDataInit>:
 8000bea:	58d4      	ldr	r4, [r2, r3]
 8000bec:	50c4      	str	r4, [r0, r3]
 8000bee:	3304      	adds	r3, #4

08000bf0 <LoopCopyDataInit>:
 8000bf0:	18c4      	adds	r4, r0, r3
 8000bf2:	428c      	cmp	r4, r1
 8000bf4:	d3f9      	bcc.n	8000bea <CopyDataInit>
 8000bf6:	4a0b      	ldr	r2, [pc, #44]	; (8000c24 <LoopForever+0x12>)
 8000bf8:	4c0b      	ldr	r4, [pc, #44]	; (8000c28 <LoopForever+0x16>)
 8000bfa:	2300      	movs	r3, #0
 8000bfc:	e001      	b.n	8000c02 <LoopFillZerobss>

08000bfe <FillZerobss>:
 8000bfe:	6013      	str	r3, [r2, #0]
 8000c00:	3204      	adds	r2, #4

08000c02 <LoopFillZerobss>:
 8000c02:	42a2      	cmp	r2, r4
 8000c04:	d3fb      	bcc.n	8000bfe <FillZerobss>
 8000c06:	f7ff ffdf 	bl	8000bc8 <SystemInit>
 8000c0a:	f004 f987 	bl	8004f1c <__libc_init_array>
 8000c0e:	f7ff fbfb 	bl	8000408 <main>

08000c12 <LoopForever>:
 8000c12:	e7fe      	b.n	8000c12 <LoopForever>
 8000c14:	20008000 	.word	0x20008000
 8000c18:	20000000 	.word	0x20000000
 8000c1c:	200001ac 	.word	0x200001ac
 8000c20:	08004fec 	.word	0x08004fec
 8000c24:	200001ac 	.word	0x200001ac
 8000c28:	200015a8 	.word	0x200015a8

08000c2c <ADC1_2_IRQHandler>:
 8000c2c:	e7fe      	b.n	8000c2c <ADC1_2_IRQHandler>
	...

08000c30 <HAL_InitTick>:
 8000c30:	b538      	push	{r3, r4, r5, lr}
 8000c32:	4b0f      	ldr	r3, [pc, #60]	; (8000c70 <HAL_InitTick+0x40>)
 8000c34:	4605      	mov	r5, r0
 8000c36:	6818      	ldr	r0, [r3, #0]
 8000c38:	b908      	cbnz	r0, 8000c3e <HAL_InitTick+0xe>
 8000c3a:	2001      	movs	r0, #1
 8000c3c:	bd38      	pop	{r3, r4, r5, pc}
 8000c3e:	4a0d      	ldr	r2, [pc, #52]	; (8000c74 <HAL_InitTick+0x44>)
 8000c40:	f44f 737a 	mov.w	r3, #1000	; 0x3e8
 8000c44:	fbb3 f3f0 	udiv	r3, r3, r0
 8000c48:	6810      	ldr	r0, [r2, #0]
 8000c4a:	fbb0 f0f3 	udiv	r0, r0, r3
 8000c4e:	f000 f889 	bl	8000d64 <HAL_SYSTICK_Config>
 8000c52:	4604      	mov	r4, r0
 8000c54:	2800      	cmp	r0, #0
 8000c56:	d1f0      	bne.n	8000c3a <HAL_InitTick+0xa>
 8000c58:	2d0f      	cmp	r5, #15
 8000c5a:	d8ee      	bhi.n	8000c3a <HAL_InitTick+0xa>
 8000c5c:	4602      	mov	r2, r0
 8000c5e:	4629      	mov	r1, r5
 8000c60:	f04f 30ff 	mov.w	r0, #4294967295
 8000c64:	f000 f83e 	bl	8000ce4 <HAL_NVIC_SetPriority>
 8000c68:	4b03      	ldr	r3, [pc, #12]	; (8000c78 <HAL_InitTick+0x48>)
 8000c6a:	4620      	mov	r0, r4
 8000c6c:	601d      	str	r5, [r3, #0]
 8000c6e:	e7e5      	b.n	8000c3c <HAL_InitTick+0xc>
 8000c70:	2000002c 	.word	0x2000002c
 8000c74:	20000028 	.word	0x20000028
 8000c78:	20000030 	.word	0x20000030

08000c7c <HAL_Init>:
 8000c7c:	b510      	push	{r4, lr}
 8000c7e:	2003      	movs	r0, #3
 8000c80:	f000 f81e 	bl	8000cc0 <HAL_NVIC_SetPriorityGrouping>
 8000c84:	200f      	movs	r0, #15
 8000c86:	f7ff ffd3 	bl	8000c30 <HAL_InitTick>
 8000c8a:	4604      	mov	r4, r0
 8000c8c:	b918      	cbnz	r0, 8000c96 <HAL_Init+0x1a>
 8000c8e:	f7ff fdf9 	bl	8000884 <HAL_MspInit>
 8000c92:	4620      	mov	r0, r4
 8000c94:	bd10      	pop	{r4, pc}
 8000c96:	2401      	movs	r4, #1
 8000c98:	e7fb      	b.n	8000c92 <HAL_Init+0x16>
	...

08000c9c <HAL_IncTick>:
 8000c9c:	4a03      	ldr	r2, [pc, #12]	; (8000cac <HAL_IncTick+0x10>)
 8000c9e:	4904      	ldr	r1, [pc, #16]	; (8000cb0 <HAL_IncTick+0x14>)
 8000ca0:	6813      	ldr	r3, [r2, #0]
 8000ca2:	6809      	ldr	r1, [r1, #0]
 8000ca4:	440b      	add	r3, r1
 8000ca6:	6013      	str	r3, [r2, #0]
 8000ca8:	4770      	bx	lr
 8000caa:	bf00      	nop
 8000cac:	200003ec 	.word	0x200003ec
 8000cb0:	2000002c 	.word	0x2000002c

08000cb4 <HAL_GetTick>:
 8000cb4:	4b01      	ldr	r3, [pc, #4]	; (8000cbc <HAL_GetTick+0x8>)
 8000cb6:	6818      	ldr	r0, [r3, #0]
 8000cb8:	4770      	bx	lr
 8000cba:	bf00      	nop
 8000cbc:	200003ec 	.word	0x200003ec

08000cc0 <HAL_NVIC_SetPriorityGrouping>:
 8000cc0:	4907      	ldr	r1, [pc, #28]	; (8000ce0 <HAL_NVIC_SetPriorityGrouping+0x20>)
 8000cc2:	68ca      	ldr	r2, [r1, #12]
 8000cc4:	f422 62e0 	bic.w	r2, r2, #1792	; 0x700
 8000cc8:	0203      	lsls	r3, r0, #8
 8000cca:	0412      	lsls	r2, r2, #16
 8000ccc:	f403 63e0 	and.w	r3, r3, #1792	; 0x700
 8000cd0:	0c12      	lsrs	r2, r2, #16
 8000cd2:	4313      	orrs	r3, r2
 8000cd4:	f043 63bf 	orr.w	r3, r3, #100139008	; 0x5f80000
 8000cd8:	f443 3300 	orr.w	r3, r3, #131072	; 0x20000
 8000cdc:	60cb      	str	r3, [r1, #12]
 8000cde:	4770      	bx	lr
 8000ce0:	e000ed00 	.word	0xe000ed00

08000ce4 <HAL_NVIC_SetPriority>:
 8000ce4:	4b16      	ldr	r3, [pc, #88]	; (8000d40 <HAL_NVIC_SetPriority+0x5c>)
 8000ce6:	b530      	push	{r4, r5, lr}
 8000ce8:	68dc      	ldr	r4, [r3, #12]
 8000cea:	f3c4 2402 	ubfx	r4, r4, #8, #3
 8000cee:	f1c4 0507 	rsb	r5, r4, #7
 8000cf2:	1d23      	adds	r3, r4, #4
 8000cf4:	2d04      	cmp	r5, #4
 8000cf6:	bf28      	it	cs
 8000cf8:	2504      	movcs	r5, #4
 8000cfa:	2b06      	cmp	r3, #6
 8000cfc:	f04f 33ff 	mov.w	r3, #4294967295
 8000d00:	bf8c      	ite	hi
 8000d02:	3c03      	subhi	r4, #3
 8000d04:	2400      	movls	r4, #0
 8000d06:	fa03 f505 	lsl.w	r5, r3, r5
 8000d0a:	ea21 0105 	bic.w	r1, r1, r5
 8000d0e:	40a3      	lsls	r3, r4
 8000d10:	ea22 0203 	bic.w	r2, r2, r3
 8000d14:	40a1      	lsls	r1, r4
 8000d16:	2800      	cmp	r0, #0
 8000d18:	ea41 0302 	orr.w	r3, r1, r2
 8000d1c:	bfac      	ite	ge
 8000d1e:	f100 4060 	addge.w	r0, r0, #3758096384	; 0xe0000000
 8000d22:	4a08      	ldrlt	r2, [pc, #32]	; (8000d44 <HAL_NVIC_SetPriority+0x60>)
 8000d24:	ea4f 1303 	mov.w	r3, r3, lsl #4
 8000d28:	bfb8      	it	lt
 8000d2a:	f000 000f 	andlt.w	r0, r0, #15
 8000d2e:	b2db      	uxtb	r3, r3
 8000d30:	bfaa      	itet	ge
 8000d32:	f500 4061 	addge.w	r0, r0, #57600	; 0xe100
 8000d36:	5413      	strblt	r3, [r2, r0]
 8000d38:	f880 3300 	strbge.w	r3, [r0, #768]	; 0x300
 8000d3c:	bd30      	pop	{r4, r5, pc}
 8000d3e:	bf00      	nop
 8000d40:	e000ed00 	.word	0xe000ed00
 8000d44:	e000ed14 	.word	0xe000ed14

08000d48 <HAL_NVIC_EnableIRQ>:
 8000d48:	2800      	cmp	r0, #0
 8000d4a:	db08      	blt.n	8000d5e <HAL_NVIC_EnableIRQ+0x16>
 8000d4c:	2301      	movs	r3, #1
 8000d4e:	0942      	lsrs	r2, r0, #5
 8000d50:	f000 001f 	and.w	r0, r0, #31
 8000d54:	fa03 f000 	lsl.w	r0, r3, r0
 8000d58:	4b01      	ldr	r3, [pc, #4]	; (8000d60 <HAL_NVIC_EnableIRQ+0x18>)
 8000d5a:	f843 0022 	str.w	r0, [r3, r2, lsl #2]
 8000d5e:	4770      	bx	lr
 8000d60:	e000e100 	.word	0xe000e100

08000d64 <HAL_SYSTICK_Config>:
 8000d64:	3801      	subs	r0, #1
 8000d66:	f1b0 7f80 	cmp.w	r0, #16777216	; 0x1000000
 8000d6a:	d20b      	bcs.n	8000d84 <HAL_SYSTICK_Config+0x20>
 8000d6c:	f04f 23e0 	mov.w	r3, #3758153728	; 0xe000e000
 8000d70:	4a05      	ldr	r2, [pc, #20]	; (8000d88 <HAL_SYSTICK_Config+0x24>)
 8000d72:	6158      	str	r0, [r3, #20]
 8000d74:	21f0      	movs	r1, #240	; 0xf0
 8000d76:	f882 1023 	strb.w	r1, [r2, #35]	; 0x23
 8000d7a:	2000      	movs	r0, #0
 8000d7c:	2207      	movs	r2, #7
 8000d7e:	6198      	str	r0, [r3, #24]
 8000d80:	611a      	str	r2, [r3, #16]
 8000d82:	4770      	bx	lr
 8000d84:	2001      	movs	r0, #1
 8000d86:	4770      	bx	lr
 8000d88:	e000ed00 	.word	0xe000ed00

08000d8c <DMA_SetConfig>:
 8000d8c:	b570      	push	{r4, r5, r6, lr}
 8000d8e:	e9d0 4513 	ldrd	r4, r5, [r0, #76]	; 0x4c
 8000d92:	6065      	str	r5, [r4, #4]
 8000d94:	6d44      	ldr	r4, [r0, #84]	; 0x54
 8000d96:	b114      	cbz	r4, 8000d9e <DMA_SetConfig+0x12>
 8000d98:	e9d0 4516 	ldrd	r4, r5, [r0, #88]	; 0x58
 8000d9c:	6065      	str	r5, [r4, #4]
 8000d9e:	e9d0 5410 	ldrd	r5, r4, [r0, #64]	; 0x40
 8000da2:	f004 061f 	and.w	r6, r4, #31
 8000da6:	2401      	movs	r4, #1
 8000da8:	40b4      	lsls	r4, r6
 8000daa:	606c      	str	r4, [r5, #4]
 8000dac:	6804      	ldr	r4, [r0, #0]
 8000dae:	6063      	str	r3, [r4, #4]
 8000db0:	6883      	ldr	r3, [r0, #8]
 8000db2:	2b10      	cmp	r3, #16
 8000db4:	bf0b      	itete	eq
 8000db6:	60a2      	streq	r2, [r4, #8]
 8000db8:	60a1      	strne	r1, [r4, #8]
 8000dba:	60e1      	streq	r1, [r4, #12]
 8000dbc:	60e2      	strne	r2, [r4, #12]
 8000dbe:	bd70      	pop	{r4, r5, r6, pc}

08000dc0 <HAL_DMA_Start_IT>:
 8000dc0:	b570      	push	{r4, r5, r6, lr}
 8000dc2:	f890 5024 	ldrb.w	r5, [r0, #36]	; 0x24
 8000dc6:	2d01      	cmp	r5, #1
 8000dc8:	4604      	mov	r4, r0
 8000dca:	d039      	beq.n	8000e40 <HAL_DMA_Start_IT+0x80>
 8000dcc:	2501      	movs	r5, #1
 8000dce:	f880 5024 	strb.w	r5, [r0, #36]	; 0x24
 8000dd2:	f890 5025 	ldrb.w	r5, [r0, #37]	; 0x25
 8000dd6:	2d01      	cmp	r5, #1
 8000dd8:	f04f 0600 	mov.w	r6, #0
 8000ddc:	f04f 0502 	mov.w	r5, #2
 8000de0:	d12c      	bne.n	8000e3c <HAL_DMA_Start_IT+0x7c>
 8000de2:	f880 5025 	strb.w	r5, [r0, #37]	; 0x25
 8000de6:	63c6      	str	r6, [r0, #60]	; 0x3c
 8000de8:	6806      	ldr	r6, [r0, #0]
 8000dea:	6835      	ldr	r5, [r6, #0]
 8000dec:	f025 0501 	bic.w	r5, r5, #1
 8000df0:	6035      	str	r5, [r6, #0]
 8000df2:	f7ff ffcb 	bl	8000d8c <DMA_SetConfig>
 8000df6:	6b02      	ldr	r2, [r0, #48]	; 0x30
 8000df8:	6803      	ldr	r3, [r0, #0]
 8000dfa:	b1ba      	cbz	r2, 8000e2c <HAL_DMA_Start_IT+0x6c>
 8000dfc:	681a      	ldr	r2, [r3, #0]
 8000dfe:	f042 020e 	orr.w	r2, r2, #14
 8000e02:	601a      	str	r2, [r3, #0]
 8000e04:	6ca2      	ldr	r2, [r4, #72]	; 0x48
 8000e06:	6811      	ldr	r1, [r2, #0]
 8000e08:	03c9      	lsls	r1, r1, #15
 8000e0a:	bf42      	ittt	mi
 8000e0c:	6811      	ldrmi	r1, [r2, #0]
 8000e0e:	f441 7180 	orrmi.w	r1, r1, #256	; 0x100
 8000e12:	6011      	strmi	r1, [r2, #0]
 8000e14:	6d62      	ldr	r2, [r4, #84]	; 0x54
 8000e16:	b11a      	cbz	r2, 8000e20 <HAL_DMA_Start_IT+0x60>
 8000e18:	6811      	ldr	r1, [r2, #0]
 8000e1a:	f441 7180 	orr.w	r1, r1, #256	; 0x100
 8000e1e:	6011      	str	r1, [r2, #0]
 8000e20:	681a      	ldr	r2, [r3, #0]
 8000e22:	f042 0201 	orr.w	r2, r2, #1
 8000e26:	601a      	str	r2, [r3, #0]
 8000e28:	2000      	movs	r0, #0
 8000e2a:	bd70      	pop	{r4, r5, r6, pc}
 8000e2c:	681a      	ldr	r2, [r3, #0]
 8000e2e:	f022 0204 	bic.w	r2, r2, #4
 8000e32:	601a      	str	r2, [r3, #0]
 8000e34:	681a      	ldr	r2, [r3, #0]
 8000e36:	f042 020a 	orr.w	r2, r2, #10
 8000e3a:	e7e2      	b.n	8000e02 <HAL_DMA_Start_IT+0x42>
 8000e3c:	f880 6024 	strb.w	r6, [r0, #36]	; 0x24
 8000e40:	2002      	movs	r0, #2
 8000e42:	e7f2      	b.n	8000e2a <HAL_DMA_Start_IT+0x6a>

08000e44 <HAL_GPIO_Init>:
 8000e44:	e92d 4ff7 	stmdb	sp!, {r0, r1, r2, r4, r5, r6, r7, r8, r9, sl, fp, lr}
 8000e48:	f8df 918c 	ldr.w	r9, [pc, #396]	; 8000fd8 <HAL_GPIO_Init+0x194>
 8000e4c:	4c60      	ldr	r4, [pc, #384]	; (8000fd0 <HAL_GPIO_Init+0x18c>)
 8000e4e:	2300      	movs	r3, #0
 8000e50:	680a      	ldr	r2, [r1, #0]
 8000e52:	fa32 f503 	lsrs.w	r5, r2, r3
 8000e56:	d102      	bne.n	8000e5e <HAL_GPIO_Init+0x1a>
 8000e58:	b003      	add	sp, #12
 8000e5a:	e8bd 8ff0 	ldmia.w	sp!, {r4, r5, r6, r7, r8, r9, sl, fp, pc}
 8000e5e:	2501      	movs	r5, #1
 8000e60:	fa05 fe03 	lsl.w	lr, r5, r3
 8000e64:	ea1e 0202 	ands.w	r2, lr, r2
 8000e68:	f000 80a5 	beq.w	8000fb6 <HAL_GPIO_Init+0x172>
 8000e6c:	684e      	ldr	r6, [r1, #4]
 8000e6e:	f006 0503 	and.w	r5, r6, #3
 8000e72:	ea4f 0843 	mov.w	r8, r3, lsl #1
 8000e76:	f04f 0c03 	mov.w	ip, #3
 8000e7a:	1e6f      	subs	r7, r5, #1
 8000e7c:	fa0c fc08 	lsl.w	ip, ip, r8
 8000e80:	2f01      	cmp	r7, #1
 8000e82:	ea6f 0c0c 	mvn.w	ip, ip
 8000e86:	d834      	bhi.n	8000ef2 <HAL_GPIO_Init+0xae>
 8000e88:	6887      	ldr	r7, [r0, #8]
 8000e8a:	ea07 0a0c 	and.w	sl, r7, ip
 8000e8e:	68cf      	ldr	r7, [r1, #12]
 8000e90:	fa07 f708 	lsl.w	r7, r7, r8
 8000e94:	ea47 070a 	orr.w	r7, r7, sl
 8000e98:	6087      	str	r7, [r0, #8]
 8000e9a:	6847      	ldr	r7, [r0, #4]
 8000e9c:	ea27 0e0e 	bic.w	lr, r7, lr
 8000ea0:	f3c6 1700 	ubfx	r7, r6, #4, #1
 8000ea4:	409f      	lsls	r7, r3
 8000ea6:	ea47 070e 	orr.w	r7, r7, lr
 8000eaa:	6047      	str	r7, [r0, #4]
 8000eac:	68c7      	ldr	r7, [r0, #12]
 8000eae:	ea07 0e0c 	and.w	lr, r7, ip
 8000eb2:	688f      	ldr	r7, [r1, #8]
 8000eb4:	fa07 f708 	lsl.w	r7, r7, r8
 8000eb8:	ea47 070e 	orr.w	r7, r7, lr
 8000ebc:	2d02      	cmp	r5, #2
 8000ebe:	60c7      	str	r7, [r0, #12]
 8000ec0:	d119      	bne.n	8000ef6 <HAL_GPIO_Init+0xb2>
 8000ec2:	ea4f 0ad3 	mov.w	sl, r3, lsr #3
 8000ec6:	eb00 0a8a 	add.w	sl, r0, sl, lsl #2
 8000eca:	f003 0b07 	and.w	fp, r3, #7
 8000ece:	f8da 7020 	ldr.w	r7, [sl, #32]
 8000ed2:	ea4f 0b8b 	mov.w	fp, fp, lsl #2
 8000ed6:	f04f 0e0f 	mov.w	lr, #15
 8000eda:	fa0e fe0b 	lsl.w	lr, lr, fp
 8000ede:	ea27 0e0e 	bic.w	lr, r7, lr
 8000ee2:	690f      	ldr	r7, [r1, #16]
 8000ee4:	fa07 f70b 	lsl.w	r7, r7, fp
 8000ee8:	ea47 070e 	orr.w	r7, r7, lr
 8000eec:	f8ca 7020 	str.w	r7, [sl, #32]
 8000ef0:	e001      	b.n	8000ef6 <HAL_GPIO_Init+0xb2>
 8000ef2:	2d03      	cmp	r5, #3
 8000ef4:	d1da      	bne.n	8000eac <HAL_GPIO_Init+0x68>
 8000ef6:	6807      	ldr	r7, [r0, #0]
 8000ef8:	fa05 f508 	lsl.w	r5, r5, r8
 8000efc:	ea07 070c 	and.w	r7, r7, ip
 8000f00:	432f      	orrs	r7, r5
 8000f02:	f416 3f40 	tst.w	r6, #196608	; 0x30000
 8000f06:	6007      	str	r7, [r0, #0]
 8000f08:	d055      	beq.n	8000fb6 <HAL_GPIO_Init+0x172>
 8000f0a:	f8d9 5060 	ldr.w	r5, [r9, #96]	; 0x60
 8000f0e:	f045 0501 	orr.w	r5, r5, #1
 8000f12:	f8c9 5060 	str.w	r5, [r9, #96]	; 0x60
 8000f16:	f8d9 5060 	ldr.w	r5, [r9, #96]	; 0x60
 8000f1a:	f023 0703 	bic.w	r7, r3, #3
 8000f1e:	f107 4780 	add.w	r7, r7, #1073741824	; 0x40000000
 8000f22:	f005 0501 	and.w	r5, r5, #1
 8000f26:	f507 3780 	add.w	r7, r7, #65536	; 0x10000
 8000f2a:	9501      	str	r5, [sp, #4]
 8000f2c:	f003 0e03 	and.w	lr, r3, #3
 8000f30:	9d01      	ldr	r5, [sp, #4]
 8000f32:	68bd      	ldr	r5, [r7, #8]
 8000f34:	ea4f 0e8e 	mov.w	lr, lr, lsl #2
 8000f38:	f04f 0c0f 	mov.w	ip, #15
 8000f3c:	fa0c fc0e 	lsl.w	ip, ip, lr
 8000f40:	f1b0 4f90 	cmp.w	r0, #1207959552	; 0x48000000
 8000f44:	ea25 0c0c 	bic.w	ip, r5, ip
 8000f48:	d037      	beq.n	8000fba <HAL_GPIO_Init+0x176>
 8000f4a:	4d22      	ldr	r5, [pc, #136]	; (8000fd4 <HAL_GPIO_Init+0x190>)
 8000f4c:	42a8      	cmp	r0, r5
 8000f4e:	d036      	beq.n	8000fbe <HAL_GPIO_Init+0x17a>
 8000f50:	f505 6580 	add.w	r5, r5, #1024	; 0x400
 8000f54:	42a8      	cmp	r0, r5
 8000f56:	d034      	beq.n	8000fc2 <HAL_GPIO_Init+0x17e>
 8000f58:	f505 6580 	add.w	r5, r5, #1024	; 0x400
 8000f5c:	42a8      	cmp	r0, r5
 8000f5e:	d032      	beq.n	8000fc6 <HAL_GPIO_Init+0x182>
 8000f60:	f505 6580 	add.w	r5, r5, #1024	; 0x400
 8000f64:	42a8      	cmp	r0, r5
 8000f66:	d030      	beq.n	8000fca <HAL_GPIO_Init+0x186>
 8000f68:	f505 6580 	add.w	r5, r5, #1024	; 0x400
 8000f6c:	42a8      	cmp	r0, r5
 8000f6e:	bf0c      	ite	eq
 8000f70:	2505      	moveq	r5, #5
 8000f72:	2506      	movne	r5, #6
 8000f74:	fa05 f50e 	lsl.w	r5, r5, lr
 8000f78:	ea45 050c 	orr.w	r5, r5, ip
 8000f7c:	60bd      	str	r5, [r7, #8]
 8000f7e:	68a5      	ldr	r5, [r4, #8]
 8000f80:	43d7      	mvns	r7, r2
 8000f82:	f416 1f80 	tst.w	r6, #1048576	; 0x100000
 8000f86:	bf0c      	ite	eq
 8000f88:	403d      	andeq	r5, r7
 8000f8a:	4315      	orrne	r5, r2
 8000f8c:	60a5      	str	r5, [r4, #8]
 8000f8e:	68e5      	ldr	r5, [r4, #12]
 8000f90:	f416 1f00 	tst.w	r6, #2097152	; 0x200000
 8000f94:	bf0c      	ite	eq
 8000f96:	403d      	andeq	r5, r7
 8000f98:	4315      	orrne	r5, r2
 8000f9a:	60e5      	str	r5, [r4, #12]
 8000f9c:	6865      	ldr	r5, [r4, #4]
 8000f9e:	f416 3f00 	tst.w	r6, #131072	; 0x20000
 8000fa2:	bf0c      	ite	eq
 8000fa4:	403d      	andeq	r5, r7
 8000fa6:	4315      	orrne	r5, r2
 8000fa8:	6065      	str	r5, [r4, #4]
 8000faa:	6825      	ldr	r5, [r4, #0]
 8000fac:	03f6      	lsls	r6, r6, #15
 8000fae:	bf54      	ite	pl
 8000fb0:	403d      	andpl	r5, r7
 8000fb2:	4315      	orrmi	r5, r2
 8000fb4:	6025      	str	r5, [r4, #0]
 8000fb6:	3301      	adds	r3, #1
 8000fb8:	e74a      	b.n	8000e50 <HAL_GPIO_Init+0xc>
 8000fba:	2500      	movs	r5, #0
 8000fbc:	e7da      	b.n	8000f74 <HAL_GPIO_Init+0x130>
 8000fbe:	2501      	movs	r5, #1
 8000fc0:	e7d8      	b.n	8000f74 <HAL_GPIO_Init+0x130>
 8000fc2:	2502      	movs	r5, #2
 8000fc4:	e7d6      	b.n	8000f74 <HAL_GPIO_Init+0x130>
 8000fc6:	2503      	movs	r5, #3
 8000fc8:	e7d4      	b.n	8000f74 <HAL_GPIO_Init+0x130>
 8000fca:	2504      	movs	r5, #4
 8000fcc:	e7d2      	b.n	8000f74 <HAL_GPIO_Init+0x130>
 8000fce:	bf00      	nop
 8000fd0:	40010400 	.word	0x40010400
 8000fd4:	48000400 	.word	0x48000400
 8000fd8:	40021000 	.word	0x40021000

08000fdc <HAL_GPIO_WritePin>:
 8000fdc:	b10a      	cbz	r2, 8000fe2 <HAL_GPIO_WritePin+0x6>
 8000fde:	6181      	str	r1, [r0, #24]
 8000fe0:	4770      	bx	lr
 8000fe2:	6281      	str	r1, [r0, #40]	; 0x28
 8000fe4:	4770      	bx	lr

08000fe6 <HAL_PCD_Init>:
 8000fe6:	b5f0      	push	{r4, r5, r6, r7, lr}
 8000fe8:	4604      	mov	r4, r0
 8000fea:	b087      	sub	sp, #28
 8000fec:	2800      	cmp	r0, #0
 8000fee:	d055      	beq.n	800109c <HAL_PCD_Init+0xb6>
 8000ff0:	f890 32a9 	ldrb.w	r3, [r0, #681]	; 0x2a9
 8000ff4:	f003 02ff 	and.w	r2, r3, #255	; 0xff
 8000ff8:	b91b      	cbnz	r3, 8001002 <HAL_PCD_Init+0x1c>
 8000ffa:	f880 22a8 	strb.w	r2, [r0, #680]	; 0x2a8
 8000ffe:	f003 fe3d 	bl	8004c7c <HAL_PCD_MspInit>
 8001002:	2303      	movs	r3, #3
 8001004:	f884 32a9 	strb.w	r3, [r4, #681]	; 0x2a9
 8001008:	6820      	ldr	r0, [r4, #0]
 800100a:	f002 fad7 	bl	80035bc <USB_DisableGlobalInt>
 800100e:	2300      	movs	r3, #0
 8001010:	6865      	ldr	r5, [r4, #4]
 8001012:	2628      	movs	r6, #40	; 0x28
 8001014:	2701      	movs	r7, #1
 8001016:	4618      	mov	r0, r3
 8001018:	b2d9      	uxtb	r1, r3
 800101a:	428d      	cmp	r5, r1
 800101c:	f103 0201 	add.w	r2, r3, #1
 8001020:	d821      	bhi.n	8001066 <HAL_PCD_Init+0x80>
 8001022:	2300      	movs	r3, #0
 8001024:	2628      	movs	r6, #40	; 0x28
 8001026:	4619      	mov	r1, r3
 8001028:	b2d8      	uxtb	r0, r3
 800102a:	4285      	cmp	r5, r0
 800102c:	f103 0301 	add.w	r3, r3, #1
 8001030:	d827      	bhi.n	8001082 <HAL_PCD_Init+0x9c>
 8001032:	f104 0610 	add.w	r6, r4, #16
 8001036:	ce0f      	ldmia	r6!, {r0, r1, r2, r3}
 8001038:	466d      	mov	r5, sp
 800103a:	c50f      	stmia	r5!, {r0, r1, r2, r3}
 800103c:	6833      	ldr	r3, [r6, #0]
 800103e:	602b      	str	r3, [r5, #0]
 8001040:	1d23      	adds	r3, r4, #4
 8001042:	cb0e      	ldmia	r3, {r1, r2, r3}
 8001044:	6820      	ldr	r0, [r4, #0]
 8001046:	f002 fac3 	bl	80035d0 <USB_DevInit>
 800104a:	2500      	movs	r5, #0
 800104c:	2301      	movs	r3, #1
 800104e:	f884 5024 	strb.w	r5, [r4, #36]	; 0x24
 8001052:	f884 32a9 	strb.w	r3, [r4, #681]	; 0x2a9
 8001056:	69e3      	ldr	r3, [r4, #28]
 8001058:	2b01      	cmp	r3, #1
 800105a:	d102      	bne.n	8001062 <HAL_PCD_Init+0x7c>
 800105c:	4620      	mov	r0, r4
 800105e:	f000 fe5a 	bl	8001d16 <HAL_PCDEx_ActivateLPM>
 8001062:	4628      	mov	r0, r5
 8001064:	e01b      	b.n	800109e <HAL_PCD_Init+0xb8>
 8001066:	fb06 4301 	mla	r3, r6, r1, r4
 800106a:	e9c3 000e 	strd	r0, r0, [r3, #56]	; 0x38
 800106e:	f883 7029 	strb.w	r7, [r3, #41]	; 0x29
 8001072:	f883 1028 	strb.w	r1, [r3, #40]	; 0x28
 8001076:	86d9      	strh	r1, [r3, #54]	; 0x36
 8001078:	f883 002b 	strb.w	r0, [r3, #43]	; 0x2b
 800107c:	6418      	str	r0, [r3, #64]	; 0x40
 800107e:	4613      	mov	r3, r2
 8001080:	e7ca      	b.n	8001018 <HAL_PCD_Init+0x32>
 8001082:	fb06 4200 	mla	r2, r6, r0, r4
 8001086:	e9c2 115e 	strd	r1, r1, [r2, #376]	; 0x178
 800108a:	f882 1169 	strb.w	r1, [r2, #361]	; 0x169
 800108e:	f882 0168 	strb.w	r0, [r2, #360]	; 0x168
 8001092:	f882 116b 	strb.w	r1, [r2, #363]	; 0x16b
 8001096:	f8c2 1180 	str.w	r1, [r2, #384]	; 0x180
 800109a:	e7c5      	b.n	8001028 <HAL_PCD_Init+0x42>
 800109c:	2001      	movs	r0, #1
 800109e:	b007      	add	sp, #28
 80010a0:	bdf0      	pop	{r4, r5, r6, r7, pc}

080010a2 <HAL_PCD_Start>:
 80010a2:	b510      	push	{r4, lr}
 80010a4:	f890 32a8 	ldrb.w	r3, [r0, #680]	; 0x2a8
 80010a8:	2b01      	cmp	r3, #1
 80010aa:	4604      	mov	r4, r0
 80010ac:	d00c      	beq.n	80010c8 <HAL_PCD_Start+0x26>
 80010ae:	2301      	movs	r3, #1
 80010b0:	f880 32a8 	strb.w	r3, [r0, #680]	; 0x2a8
 80010b4:	6800      	ldr	r0, [r0, #0]
 80010b6:	f002 fa78 	bl	80035aa <USB_EnableGlobalInt>
 80010ba:	6820      	ldr	r0, [r4, #0]
 80010bc:	f002 fd32 	bl	8003b24 <USB_DevConnect>
 80010c0:	2000      	movs	r0, #0
 80010c2:	f884 02a8 	strb.w	r0, [r4, #680]	; 0x2a8
 80010c6:	bd10      	pop	{r4, pc}
 80010c8:	2002      	movs	r0, #2
 80010ca:	e7fc      	b.n	80010c6 <HAL_PCD_Start+0x24>

080010cc <HAL_PCD_SetAddress>:
 80010cc:	b510      	push	{r4, lr}
 80010ce:	f890 22a8 	ldrb.w	r2, [r0, #680]	; 0x2a8
 80010d2:	2a01      	cmp	r2, #1
 80010d4:	4604      	mov	r4, r0
 80010d6:	d00b      	beq.n	80010f0 <HAL_PCD_SetAddress+0x24>
 80010d8:	2201      	movs	r2, #1
 80010da:	f880 22a8 	strb.w	r2, [r0, #680]	; 0x2a8
 80010de:	f880 1024 	strb.w	r1, [r0, #36]	; 0x24
 80010e2:	6800      	ldr	r0, [r0, #0]
 80010e4:	f002 fd18 	bl	8003b18 <USB_SetDevAddress>
 80010e8:	2000      	movs	r0, #0
 80010ea:	f884 02a8 	strb.w	r0, [r4, #680]	; 0x2a8
 80010ee:	bd10      	pop	{r4, pc}
 80010f0:	2002      	movs	r0, #2
 80010f2:	e7fc      	b.n	80010ee <HAL_PCD_SetAddress+0x22>

080010f4 <HAL_PCD_IRQHandler>:
 80010f4:	e92d 4ff7 	stmdb	sp!, {r0, r1, r2, r4, r5, r6, r7, r8, r9, sl, fp, lr}
 80010f8:	4604      	mov	r4, r0
 80010fa:	6800      	ldr	r0, [r0, #0]
 80010fc:	f002 fd1d 	bl	8003b3a <USB_ReadInterrupts>
 8001100:	f410 4100 	ands.w	r1, r0, #32768	; 0x8000
 8001104:	f000 842d 	beq.w	8001962 <HAL_PCD_IRQHandler+0x86e>
 8001108:	f8df 830c 	ldr.w	r8, [pc, #780]	; 8001418 <HAL_PCD_IRQHandler+0x324>
 800110c:	4fc1      	ldr	r7, [pc, #772]	; (8001414 <HAL_PCD_IRQHandler+0x320>)
 800110e:	6820      	ldr	r0, [r4, #0]
 8001110:	f8b0 3044 	ldrh.w	r3, [r0, #68]	; 0x44
 8001114:	041a      	lsls	r2, r3, #16
 8001116:	d402      	bmi.n	800111e <HAL_PCD_IRQHandler+0x2a>
 8001118:	b003      	add	sp, #12
 800111a:	e8bd 8ff0 	ldmia.w	sp!, {r4, r5, r6, r7, r8, r9, sl, fp, pc}
 800111e:	f8b0 5044 	ldrh.w	r5, [r0, #68]	; 0x44
 8001122:	b2a9      	uxth	r1, r5
 8001124:	f015 050f 	ands.w	r5, r5, #15
 8001128:	f040 80b7 	bne.w	800129a <HAL_PCD_IRQHandler+0x1a6>
 800112c:	f011 0110 	ands.w	r1, r1, #16
 8001130:	d12a      	bne.n	8001188 <HAL_PCD_IRQHandler+0x94>
 8001132:	8803      	ldrh	r3, [r0, #0]
 8001134:	b29b      	uxth	r3, r3
 8001136:	ea03 0308 	and.w	r3, r3, r8
 800113a:	f443 4300 	orr.w	r3, r3, #32768	; 0x8000
 800113e:	8003      	strh	r3, [r0, #0]
 8001140:	f8b0 3050 	ldrh.w	r3, [r0, #80]	; 0x50
 8001144:	f894 2028 	ldrb.w	r2, [r4, #40]	; 0x28
 8001148:	f200 4002 	addw	r0, r0, #1026	; 0x402
 800114c:	fa10 f383 	uxtah	r3, r0, r3
 8001150:	4620      	mov	r0, r4
 8001152:	f833 3032 	ldrh.w	r3, [r3, r2, lsl #3]
 8001156:	6be2      	ldr	r2, [r4, #60]	; 0x3c
 8001158:	f3c3 0309 	ubfx	r3, r3, #0, #10
 800115c:	6463      	str	r3, [r4, #68]	; 0x44
 800115e:	4413      	add	r3, r2
 8001160:	63e3      	str	r3, [r4, #60]	; 0x3c
 8001162:	f003 fdc8 	bl	8004cf6 <HAL_PCD_DataInStageCallback>
 8001166:	f894 3024 	ldrb.w	r3, [r4, #36]	; 0x24
 800116a:	2b00      	cmp	r3, #0
 800116c:	d0cf      	beq.n	800110e <HAL_PCD_IRQHandler+0x1a>
 800116e:	6c22      	ldr	r2, [r4, #64]	; 0x40
 8001170:	2a00      	cmp	r2, #0
 8001172:	d1cc      	bne.n	800110e <HAL_PCD_IRQHandler+0x1a>
 8001174:	f894 3024 	ldrb.w	r3, [r4, #36]	; 0x24
 8001178:	6821      	ldr	r1, [r4, #0]
 800117a:	f043 0380 	orr.w	r3, r3, #128	; 0x80
 800117e:	f8a1 304c 	strh.w	r3, [r1, #76]	; 0x4c
 8001182:	f884 2024 	strb.w	r2, [r4, #36]	; 0x24
 8001186:	e7c2      	b.n	800110e <HAL_PCD_IRQHandler+0x1a>
 8001188:	8805      	ldrh	r5, [r0, #0]
 800118a:	b2ab      	uxth	r3, r5
 800118c:	f415 6500 	ands.w	r5, r5, #2048	; 0x800
 8001190:	d020      	beq.n	80011d4 <HAL_PCD_IRQHandler+0xe0>
 8001192:	f8b0 3050 	ldrh.w	r3, [r0, #80]	; 0x50
 8001196:	f894 2168 	ldrb.w	r2, [r4, #360]	; 0x168
 800119a:	f200 4106 	addw	r1, r0, #1030	; 0x406
 800119e:	fa11 f383 	uxtah	r3, r1, r3
 80011a2:	f504 712c 	add.w	r1, r4, #688	; 0x2b0
 80011a6:	f833 3032 	ldrh.w	r3, [r3, r2, lsl #3]
 80011aa:	f8b4 216e 	ldrh.w	r2, [r4, #366]	; 0x16e
 80011ae:	f3c3 0309 	ubfx	r3, r3, #0, #10
 80011b2:	f8c4 3184 	str.w	r3, [r4, #388]	; 0x184
 80011b6:	f002 fef1 	bl	8003f9c <USB_ReadPMA>
 80011ba:	6822      	ldr	r2, [r4, #0]
 80011bc:	8813      	ldrh	r3, [r2, #0]
 80011be:	f023 0370 	bic.w	r3, r3, #112	; 0x70
 80011c2:	051b      	lsls	r3, r3, #20
 80011c4:	0d1b      	lsrs	r3, r3, #20
 80011c6:	f043 0380 	orr.w	r3, r3, #128	; 0x80
 80011ca:	8013      	strh	r3, [r2, #0]
 80011cc:	4620      	mov	r0, r4
 80011ce:	f003 fd83 	bl	8004cd8 <HAL_PCD_SetupStageCallback>
 80011d2:	e79c      	b.n	800110e <HAL_PCD_IRQHandler+0x1a>
 80011d4:	041a      	lsls	r2, r3, #16
 80011d6:	d59a      	bpl.n	800110e <HAL_PCD_IRQHandler+0x1a>
 80011d8:	8803      	ldrh	r3, [r0, #0]
 80011da:	f023 0370 	bic.w	r3, r3, #112	; 0x70
 80011de:	051b      	lsls	r3, r3, #20
 80011e0:	0d1b      	lsrs	r3, r3, #20
 80011e2:	f043 0380 	orr.w	r3, r3, #128	; 0x80
 80011e6:	8003      	strh	r3, [r0, #0]
 80011e8:	f8b0 3050 	ldrh.w	r3, [r0, #80]	; 0x50
 80011ec:	f894 2168 	ldrb.w	r2, [r4, #360]	; 0x168
 80011f0:	f200 4106 	addw	r1, r0, #1030	; 0x406
 80011f4:	fa11 f383 	uxtah	r3, r1, r3
 80011f8:	f833 3032 	ldrh.w	r3, [r3, r2, lsl #3]
 80011fc:	f3c3 0309 	ubfx	r3, r3, #0, #10
 8001200:	f8c4 3184 	str.w	r3, [r4, #388]	; 0x184
 8001204:	b18b      	cbz	r3, 800122a <HAL_PCD_IRQHandler+0x136>
 8001206:	f8d4 117c 	ldr.w	r1, [r4, #380]	; 0x17c
 800120a:	b171      	cbz	r1, 800122a <HAL_PCD_IRQHandler+0x136>
 800120c:	f8b4 216e 	ldrh.w	r2, [r4, #366]	; 0x16e
 8001210:	f002 fec4 	bl	8003f9c <USB_ReadPMA>
 8001214:	f8d4 317c 	ldr.w	r3, [r4, #380]	; 0x17c
 8001218:	f8d4 2184 	ldr.w	r2, [r4, #388]	; 0x184
 800121c:	4413      	add	r3, r2
 800121e:	f8c4 317c 	str.w	r3, [r4, #380]	; 0x17c
 8001222:	4629      	mov	r1, r5
 8001224:	4620      	mov	r0, r4
 8001226:	f003 fd5d 	bl	8004ce4 <HAL_PCD_DataOutStageCallback>
 800122a:	6821      	ldr	r1, [r4, #0]
 800122c:	880b      	ldrh	r3, [r1, #0]
 800122e:	051b      	lsls	r3, r3, #20
 8001230:	f53f af6d 	bmi.w	800110e <HAL_PCD_IRQHandler+0x1a>
 8001234:	f8d4 5178 	ldr.w	r5, [r4, #376]	; 0x178
 8001238:	f8b1 3050 	ldrh.w	r3, [r1, #80]	; 0x50
 800123c:	2d3e      	cmp	r5, #62	; 0x3e
 800123e:	b29b      	uxth	r3, r3
 8001240:	f201 4006 	addw	r0, r1, #1030	; 0x406
 8001244:	d908      	bls.n	8001258 <HAL_PCD_IRQHandler+0x164>
 8001246:	096a      	lsrs	r2, r5, #5
 8001248:	06ee      	lsls	r6, r5, #27
 800124a:	bf08      	it	eq
 800124c:	f102 32ff 	addeq.w	r2, r2, #4294967295
 8001250:	ea47 2282 	orr.w	r2, r7, r2, lsl #10
 8001254:	b292      	uxth	r2, r2
 8001256:	e00a      	b.n	800126e <HAL_PCD_IRQHandler+0x17a>
 8001258:	b9cd      	cbnz	r5, 800128e <HAL_PCD_IRQHandler+0x19a>
 800125a:	5ac2      	ldrh	r2, [r0, r3]
 800125c:	f422 42f8 	bic.w	r2, r2, #31744	; 0x7c00
 8001260:	0412      	lsls	r2, r2, #16
 8001262:	0c12      	lsrs	r2, r2, #16
 8001264:	52c2      	strh	r2, [r0, r3]
 8001266:	5ac2      	ldrh	r2, [r0, r3]
 8001268:	b292      	uxth	r2, r2
 800126a:	f442 4200 	orr.w	r2, r2, #32768	; 0x8000
 800126e:	52c2      	strh	r2, [r0, r3]
 8001270:	880b      	ldrh	r3, [r1, #0]
 8001272:	f423 4380 	bic.w	r3, r3, #16384	; 0x4000
 8001276:	f023 0370 	bic.w	r3, r3, #112	; 0x70
 800127a:	041b      	lsls	r3, r3, #16
 800127c:	0c1b      	lsrs	r3, r3, #16
 800127e:	f483 5340 	eor.w	r3, r3, #12288	; 0x3000
 8001282:	f443 4300 	orr.w	r3, r3, #32768	; 0x8000
 8001286:	f043 0380 	orr.w	r3, r3, #128	; 0x80
 800128a:	800b      	strh	r3, [r1, #0]
 800128c:	e73f      	b.n	800110e <HAL_PCD_IRQHandler+0x1a>
 800128e:	086a      	lsrs	r2, r5, #1
 8001290:	07ed      	lsls	r5, r5, #31
 8001292:	bf48      	it	mi
 8001294:	3201      	addmi	r2, #1
 8001296:	0292      	lsls	r2, r2, #10
 8001298:	e7dc      	b.n	8001254 <HAL_PCD_IRQHandler+0x160>
 800129a:	fa0f f985 	sxth.w	r9, r5
 800129e:	f830 3029 	ldrh.w	r3, [r0, r9, lsl #2]
 80012a2:	0419      	lsls	r1, r3, #16
 80012a4:	b29e      	uxth	r6, r3
 80012a6:	f140 80f7 	bpl.w	8001498 <HAL_PCD_IRQHandler+0x3a4>
 80012aa:	f830 3029 	ldrh.w	r3, [r0, r9, lsl #2]
 80012ae:	f023 0370 	bic.w	r3, r3, #112	; 0x70
 80012b2:	051b      	lsls	r3, r3, #20
 80012b4:	0d1b      	lsrs	r3, r3, #20
 80012b6:	f043 0380 	orr.w	r3, r3, #128	; 0x80
 80012ba:	2128      	movs	r1, #40	; 0x28
 80012bc:	f820 3029 	strh.w	r3, [r0, r9, lsl #2]
 80012c0:	fb01 4105 	mla	r1, r1, r5, r4
 80012c4:	f891 3174 	ldrb.w	r3, [r1, #372]	; 0x174
 80012c8:	b9bb      	cbnz	r3, 80012fa <HAL_PCD_IRQHandler+0x206>
 80012ca:	f8b0 3050 	ldrh.w	r3, [r0, #80]	; 0x50
 80012ce:	f891 2168 	ldrb.w	r2, [r1, #360]	; 0x168
 80012d2:	f200 4c06 	addw	ip, r0, #1030	; 0x406
 80012d6:	fa1c f383 	uxtah	r3, ip, r3
 80012da:	f833 a032 	ldrh.w	sl, [r3, r2, lsl #3]
 80012de:	f3ca 0a09 	ubfx	sl, sl, #0, #10
 80012e2:	f1ba 0f00 	cmp.w	sl, #0
 80012e6:	f000 80bb 	beq.w	8001460 <HAL_PCD_IRQHandler+0x36c>
 80012ea:	f8b1 216e 	ldrh.w	r2, [r1, #366]	; 0x16e
 80012ee:	4653      	mov	r3, sl
 80012f0:	f8d1 117c 	ldr.w	r1, [r1, #380]	; 0x17c
 80012f4:	f002 fe52 	bl	8003f9c <USB_ReadPMA>
 80012f8:	e0b2      	b.n	8001460 <HAL_PCD_IRQHandler+0x36c>
 80012fa:	f891 316b 	ldrb.w	r3, [r1, #363]	; 0x16b
 80012fe:	2b02      	cmp	r3, #2
 8001300:	f891 3168 	ldrb.w	r3, [r1, #360]	; 0x168
 8001304:	f040 808a 	bne.w	800141c <HAL_PCD_IRQHandler+0x328>
 8001308:	f416 4b80 	ands.w	fp, r6, #16384	; 0x4000
 800130c:	f8d1 2180 	ldr.w	r2, [r1, #384]	; 0x180
 8001310:	f8b0 c050 	ldrh.w	ip, [r0, #80]	; 0x50
 8001314:	ea4f 0ac3 	mov.w	sl, r3, lsl #3
 8001318:	f006 0e40 	and.w	lr, r6, #64	; 0x40
 800131c:	d03d      	beq.n	800139a <HAL_PCD_IRQHandler+0x2a6>
 800131e:	fa1a fa8c 	uxtah	sl, sl, ip
 8001322:	4482      	add	sl, r0
 8001324:	f8ba a402 	ldrh.w	sl, [sl, #1026]	; 0x402
 8001328:	f3ca 0a09 	ubfx	sl, sl, #0, #10
 800132c:	4592      	cmp	sl, r2
 800132e:	d913      	bls.n	8001358 <HAL_PCD_IRQHandler+0x264>
 8001330:	2200      	movs	r2, #0
 8001332:	f8c1 2180 	str.w	r2, [r1, #384]	; 0x180
 8001336:	f830 2023 	ldrh.w	r2, [r0, r3, lsl #2]
 800133a:	f422 4280 	bic.w	r2, r2, #16384	; 0x4000
 800133e:	f022 0270 	bic.w	r2, r2, #112	; 0x70
 8001342:	0412      	lsls	r2, r2, #16
 8001344:	0c12      	lsrs	r2, r2, #16
 8001346:	f482 5200 	eor.w	r2, r2, #8192	; 0x2000
 800134a:	f442 4200 	orr.w	r2, r2, #32768	; 0x8000
 800134e:	f042 0280 	orr.w	r2, r2, #128	; 0x80
 8001352:	f820 2023 	strh.w	r2, [r0, r3, lsl #2]
 8001356:	e005      	b.n	8001364 <HAL_PCD_IRQHandler+0x270>
 8001358:	eba2 020a 	sub.w	r2, r2, sl
 800135c:	f8c1 2180 	str.w	r2, [r1, #384]	; 0x180
 8001360:	2a00      	cmp	r2, #0
 8001362:	d0e8      	beq.n	8001336 <HAL_PCD_IRQHandler+0x242>
 8001364:	f1be 0f00 	cmp.w	lr, #0
 8001368:	d00d      	beq.n	8001386 <HAL_PCD_IRQHandler+0x292>
 800136a:	f830 2023 	ldrh.w	r2, [r0, r3, lsl #2]
 800136e:	f422 42e0 	bic.w	r2, r2, #28672	; 0x7000
 8001372:	f022 0270 	bic.w	r2, r2, #112	; 0x70
 8001376:	0412      	lsls	r2, r2, #16
 8001378:	0c12      	lsrs	r2, r2, #16
 800137a:	f442 4200 	orr.w	r2, r2, #32768	; 0x8000
 800137e:	f042 02c0 	orr.w	r2, r2, #192	; 0xc0
 8001382:	f820 2023 	strh.w	r2, [r0, r3, lsl #2]
 8001386:	f1ba 0f00 	cmp.w	sl, #0
 800138a:	d069      	beq.n	8001460 <HAL_PCD_IRQHandler+0x36c>
 800138c:	2128      	movs	r1, #40	; 0x28
 800138e:	fb01 4105 	mla	r1, r1, r5, r4
 8001392:	f8b1 2170 	ldrh.w	r2, [r1, #368]	; 0x170
 8001396:	4653      	mov	r3, sl
 8001398:	e7aa      	b.n	80012f0 <HAL_PCD_IRQHandler+0x1fc>
 800139a:	fa1a fc8c 	uxtah	ip, sl, ip
 800139e:	4484      	add	ip, r0
 80013a0:	f8bc a406 	ldrh.w	sl, [ip, #1030]	; 0x406
 80013a4:	f3ca 0a09 	ubfx	sl, sl, #0, #10
 80013a8:	4592      	cmp	sl, r2
 80013aa:	d912      	bls.n	80013d2 <HAL_PCD_IRQHandler+0x2de>
 80013ac:	f8c1 b180 	str.w	fp, [r1, #384]	; 0x180
 80013b0:	f830 2023 	ldrh.w	r2, [r0, r3, lsl #2]
 80013b4:	f422 4280 	bic.w	r2, r2, #16384	; 0x4000
 80013b8:	f022 0270 	bic.w	r2, r2, #112	; 0x70
 80013bc:	0412      	lsls	r2, r2, #16
 80013be:	0c12      	lsrs	r2, r2, #16
 80013c0:	f482 5200 	eor.w	r2, r2, #8192	; 0x2000
 80013c4:	f442 4200 	orr.w	r2, r2, #32768	; 0x8000
 80013c8:	f042 0280 	orr.w	r2, r2, #128	; 0x80
 80013cc:	f820 2023 	strh.w	r2, [r0, r3, lsl #2]
 80013d0:	e005      	b.n	80013de <HAL_PCD_IRQHandler+0x2ea>
 80013d2:	eba2 020a 	sub.w	r2, r2, sl
 80013d6:	f8c1 2180 	str.w	r2, [r1, #384]	; 0x180
 80013da:	2a00      	cmp	r2, #0
 80013dc:	d0e8      	beq.n	80013b0 <HAL_PCD_IRQHandler+0x2bc>
 80013de:	f1be 0f00 	cmp.w	lr, #0
 80013e2:	d10d      	bne.n	8001400 <HAL_PCD_IRQHandler+0x30c>
 80013e4:	f830 2023 	ldrh.w	r2, [r0, r3, lsl #2]
 80013e8:	f422 42e0 	bic.w	r2, r2, #28672	; 0x7000
 80013ec:	f022 0270 	bic.w	r2, r2, #112	; 0x70
 80013f0:	0412      	lsls	r2, r2, #16
 80013f2:	0c12      	lsrs	r2, r2, #16
 80013f4:	f442 4200 	orr.w	r2, r2, #32768	; 0x8000
 80013f8:	f042 02c0 	orr.w	r2, r2, #192	; 0xc0
 80013fc:	f820 2023 	strh.w	r2, [r0, r3, lsl #2]
 8001400:	f1ba 0f00 	cmp.w	sl, #0
 8001404:	d02c      	beq.n	8001460 <HAL_PCD_IRQHandler+0x36c>
 8001406:	2128      	movs	r1, #40	; 0x28
 8001408:	fb01 4105 	mla	r1, r1, r5, r4
 800140c:	f8b1 2172 	ldrh.w	r2, [r1, #370]	; 0x172
 8001410:	4653      	mov	r3, sl
 8001412:	e76d      	b.n	80012f0 <HAL_PCD_IRQHandler+0x1fc>
 8001414:	ffff8000 	.word	0xffff8000
 8001418:	ffff8f0f 	.word	0xffff8f0f
 800141c:	f830 2023 	ldrh.w	r2, [r0, r3, lsl #2]
 8001420:	f422 42e0 	bic.w	r2, r2, #28672	; 0x7000
 8001424:	f022 0270 	bic.w	r2, r2, #112	; 0x70
 8001428:	0412      	lsls	r2, r2, #16
 800142a:	0c12      	lsrs	r2, r2, #16
 800142c:	f442 4200 	orr.w	r2, r2, #32768	; 0x8000
 8001430:	f042 02c0 	orr.w	r2, r2, #192	; 0xc0
 8001434:	f820 2023 	strh.w	r2, [r0, r3, lsl #2]
 8001438:	f891 2168 	ldrb.w	r2, [r1, #360]	; 0x168
 800143c:	f830 3022 	ldrh.w	r3, [r0, r2, lsl #2]
 8001440:	f413 4f80 	tst.w	r3, #16384	; 0x4000
 8001444:	f8b0 3050 	ldrh.w	r3, [r0, #80]	; 0x50
 8001448:	d062      	beq.n	8001510 <HAL_PCD_IRQHandler+0x41c>
 800144a:	f200 4c02 	addw	ip, r0, #1026	; 0x402
 800144e:	fa1c f383 	uxtah	r3, ip, r3
 8001452:	f833 a032 	ldrh.w	sl, [r3, r2, lsl #3]
 8001456:	f3ca 0a09 	ubfx	sl, sl, #0, #10
 800145a:	f1ba 0f00 	cmp.w	sl, #0
 800145e:	d198      	bne.n	8001392 <HAL_PCD_IRQHandler+0x29e>
 8001460:	2128      	movs	r1, #40	; 0x28
 8001462:	fb01 4305 	mla	r3, r1, r5, r4
 8001466:	f8d3 2184 	ldr.w	r2, [r3, #388]	; 0x184
 800146a:	4452      	add	r2, sl
 800146c:	f8c3 2184 	str.w	r2, [r3, #388]	; 0x184
 8001470:	f8d3 217c 	ldr.w	r2, [r3, #380]	; 0x17c
 8001474:	4452      	add	r2, sl
 8001476:	f8c3 217c 	str.w	r2, [r3, #380]	; 0x17c
 800147a:	f8d3 2180 	ldr.w	r2, [r3, #384]	; 0x180
 800147e:	b11a      	cbz	r2, 8001488 <HAL_PCD_IRQHandler+0x394>
 8001480:	f8d3 3178 	ldr.w	r3, [r3, #376]	; 0x178
 8001484:	459a      	cmp	sl, r3
 8001486:	d24f      	bcs.n	8001528 <HAL_PCD_IRQHandler+0x434>
 8001488:	2328      	movs	r3, #40	; 0x28
 800148a:	fb03 4305 	mla	r3, r3, r5, r4
 800148e:	4620      	mov	r0, r4
 8001490:	f893 1168 	ldrb.w	r1, [r3, #360]	; 0x168
 8001494:	f003 fc26 	bl	8004ce4 <HAL_PCD_DataOutStageCallback>
 8001498:	0632      	lsls	r2, r6, #24
 800149a:	f57f ae38 	bpl.w	800110e <HAL_PCD_IRQHandler+0x1a>
 800149e:	6820      	ldr	r0, [r4, #0]
 80014a0:	f830 3029 	ldrh.w	r3, [r0, r9, lsl #2]
 80014a4:	b29b      	uxth	r3, r3
 80014a6:	ea03 0308 	and.w	r3, r3, r8
 80014aa:	f443 4300 	orr.w	r3, r3, #32768	; 0x8000
 80014ae:	f820 3029 	strh.w	r3, [r0, r9, lsl #2]
 80014b2:	eb09 0989 	add.w	r9, r9, r9, lsl #2
 80014b6:	eb04 09c9 	add.w	r9, r4, r9, lsl #3
 80014ba:	f04f 0c28 	mov.w	ip, #40	; 0x28
 80014be:	f899 302b 	ldrb.w	r3, [r9, #43]	; 0x2b
 80014c2:	2b02      	cmp	r3, #2
 80014c4:	d05b      	beq.n	800157e <HAL_PCD_IRQHandler+0x48a>
 80014c6:	fb0c 4c05 	mla	ip, ip, r5, r4
 80014ca:	2500      	movs	r5, #0
 80014cc:	f89c 3034 	ldrb.w	r3, [ip, #52]	; 0x34
 80014d0:	f8cc 5040 	str.w	r5, [ip, #64]	; 0x40
 80014d4:	2b00      	cmp	r3, #0
 80014d6:	d03a      	beq.n	800154e <HAL_PCD_IRQHandler+0x45a>
 80014d8:	f016 0640 	ands.w	r6, r6, #64	; 0x40
 80014dc:	f899 3029 	ldrb.w	r3, [r9, #41]	; 0x29
 80014e0:	f899 1028 	ldrb.w	r1, [r9, #40]	; 0x28
 80014e4:	d039      	beq.n	800155a <HAL_PCD_IRQHandler+0x466>
 80014e6:	bb3b      	cbnz	r3, 8001538 <HAL_PCD_IRQHandler+0x444>
 80014e8:	f8b0 3050 	ldrh.w	r3, [r0, #80]	; 0x50
 80014ec:	f200 4002 	addw	r0, r0, #1026	; 0x402
 80014f0:	fa10 f083 	uxtah	r0, r0, r3
 80014f4:	eb00 00c1 	add.w	r0, r0, r1, lsl #3
 80014f8:	8803      	ldrh	r3, [r0, #0]
 80014fa:	f423 43f8 	bic.w	r3, r3, #31744	; 0x7c00
 80014fe:	041b      	lsls	r3, r3, #16
 8001500:	0c1b      	lsrs	r3, r3, #16
 8001502:	8003      	strh	r3, [r0, #0]
 8001504:	8803      	ldrh	r3, [r0, #0]
 8001506:	b29b      	uxth	r3, r3
 8001508:	f443 4300 	orr.w	r3, r3, #32768	; 0x8000
 800150c:	8003      	strh	r3, [r0, #0]
 800150e:	e01e      	b.n	800154e <HAL_PCD_IRQHandler+0x45a>
 8001510:	f200 4c06 	addw	ip, r0, #1030	; 0x406
 8001514:	fa1c f383 	uxtah	r3, ip, r3
 8001518:	f833 a032 	ldrh.w	sl, [r3, r2, lsl #3]
 800151c:	f3ca 0a09 	ubfx	sl, sl, #0, #10
 8001520:	f1ba 0f00 	cmp.w	sl, #0
 8001524:	d09c      	beq.n	8001460 <HAL_PCD_IRQHandler+0x36c>
 8001526:	e771      	b.n	800140c <HAL_PCD_IRQHandler+0x318>
 8001528:	fb01 4105 	mla	r1, r1, r5, r4
 800152c:	6820      	ldr	r0, [r4, #0]
 800152e:	f501 71b4 	add.w	r1, r1, #360	; 0x168
 8001532:	f002 fb15 	bl	8003b60 <USB_EPStartXfer>
 8001536:	e7af      	b.n	8001498 <HAL_PCD_IRQHandler+0x3a4>
 8001538:	2b01      	cmp	r3, #1
 800153a:	d108      	bne.n	800154e <HAL_PCD_IRQHandler+0x45a>
 800153c:	f8b0 2050 	ldrh.w	r2, [r0, #80]	; 0x50
 8001540:	f200 4002 	addw	r0, r0, #1026	; 0x402
 8001544:	fa10 f082 	uxtah	r0, r0, r2
 8001548:	eb00 00c1 	add.w	r0, r0, r1, lsl #3
 800154c:	8005      	strh	r5, [r0, #0]
 800154e:	f899 1028 	ldrb.w	r1, [r9, #40]	; 0x28
 8001552:	4620      	mov	r0, r4
 8001554:	f003 fbcf 	bl	8004cf6 <HAL_PCD_DataInStageCallback>
 8001558:	e5d9      	b.n	800110e <HAL_PCD_IRQHandler+0x1a>
 800155a:	b923      	cbnz	r3, 8001566 <HAL_PCD_IRQHandler+0x472>
 800155c:	f8b0 3050 	ldrh.w	r3, [r0, #80]	; 0x50
 8001560:	f200 4006 	addw	r0, r0, #1030	; 0x406
 8001564:	e7c4      	b.n	80014f0 <HAL_PCD_IRQHandler+0x3fc>
 8001566:	2b01      	cmp	r3, #1
 8001568:	d1f1      	bne.n	800154e <HAL_PCD_IRQHandler+0x45a>
 800156a:	f8b0 3050 	ldrh.w	r3, [r0, #80]	; 0x50
 800156e:	f200 4006 	addw	r0, r0, #1030	; 0x406
 8001572:	fa10 f383 	uxtah	r3, r0, r3
 8001576:	eb03 00c1 	add.w	r0, r3, r1, lsl #3
 800157a:	8006      	strh	r6, [r0, #0]
 800157c:	e7e7      	b.n	800154e <HAL_PCD_IRQHandler+0x45a>
 800157e:	f899 1028 	ldrb.w	r1, [r9, #40]	; 0x28
 8001582:	fb0c 4c05 	mla	ip, ip, r5, r4
 8001586:	f416 7e80 	ands.w	lr, r6, #256	; 0x100
 800158a:	f8dc 3040 	ldr.w	r3, [ip, #64]	; 0x40
 800158e:	460a      	mov	r2, r1
 8001590:	ea4f 0ac1 	mov.w	sl, r1, lsl #3
 8001594:	d122      	bne.n	80015dc <HAL_PCD_IRQHandler+0x4e8>
 8001596:	f8b0 2050 	ldrh.w	r2, [r0, #80]	; 0x50
 800159a:	fa10 f282 	uxtah	r2, r0, r2
 800159e:	4452      	add	r2, sl
 80015a0:	f8b2 2402 	ldrh.w	r2, [r2, #1026]	; 0x402
 80015a4:	f3c2 0209 	ubfx	r2, r2, #0, #10
 80015a8:	429a      	cmp	r2, r3
 80015aa:	d302      	bcc.n	80015b2 <HAL_PCD_IRQHandler+0x4be>
 80015ac:	f8cc e040 	str.w	lr, [ip, #64]	; 0x40
 80015b0:	e7cf      	b.n	8001552 <HAL_PCD_IRQHandler+0x45e>
 80015b2:	1a9b      	subs	r3, r3, r2
 80015b4:	f8cc 3040 	str.w	r3, [ip, #64]	; 0x40
 80015b8:	f8dc 303c 	ldr.w	r3, [ip, #60]	; 0x3c
 80015bc:	4413      	add	r3, r2
 80015be:	f8cc 303c 	str.w	r3, [ip, #60]	; 0x3c
 80015c2:	f8dc 3044 	ldr.w	r3, [ip, #68]	; 0x44
 80015c6:	3501      	adds	r5, #1
 80015c8:	4413      	add	r3, r2
 80015ca:	eb05 0585 	add.w	r5, r5, r5, lsl #2
 80015ce:	f8cc 3044 	str.w	r3, [ip, #68]	; 0x44
 80015d2:	eb04 01c5 	add.w	r1, r4, r5, lsl #3
 80015d6:	f002 fac3 	bl	8003b60 <USB_EPStartXfer>
 80015da:	e598      	b.n	800110e <HAL_PCD_IRQHandler+0x1a>
 80015dc:	f016 0a40 	ands.w	sl, r6, #64	; 0x40
 80015e0:	f8b0 c050 	ldrh.w	ip, [r0, #80]	; 0x50
 80015e4:	f406 4680 	and.w	r6, r6, #16384	; 0x4000
 80015e8:	f000 80dc 	beq.w	80017a4 <HAL_PCD_IRQHandler+0x6b0>
 80015ec:	f200 4e02 	addw	lr, r0, #1026	; 0x402
 80015f0:	fa1e fc8c 	uxtah	ip, lr, ip
 80015f4:	f04f 0a28 	mov.w	sl, #40	; 0x28
 80015f8:	f83c c031 	ldrh.w	ip, [ip, r1, lsl #3]
 80015fc:	f3cc 0c09 	ubfx	ip, ip, #0, #10
 8001600:	459c      	cmp	ip, r3
 8001602:	fb0a 4a05 	mla	sl, sl, r5, r4
 8001606:	bf34      	ite	cc
 8001608:	eba3 030c 	subcc.w	r3, r3, ip
 800160c:	2300      	movcs	r3, #0
 800160e:	f8ca 3040 	str.w	r3, [sl, #64]	; 0x40
 8001612:	b2b6      	uxth	r6, r6
 8001614:	2b00      	cmp	r3, #0
 8001616:	d154      	bne.n	80016c2 <HAL_PCD_IRQHandler+0x5ce>
 8001618:	f899 5029 	ldrb.w	r5, [r9, #41]	; 0x29
 800161c:	2d00      	cmp	r5, #0
 800161e:	d13f      	bne.n	80016a0 <HAL_PCD_IRQHandler+0x5ac>
 8001620:	f8b0 3050 	ldrh.w	r3, [r0, #80]	; 0x50
 8001624:	fa1e fe83 	uxtah	lr, lr, r3
 8001628:	f83e 3031 	ldrh.w	r3, [lr, r1, lsl #3]
 800162c:	f423 43f8 	bic.w	r3, r3, #31744	; 0x7c00
 8001630:	041b      	lsls	r3, r3, #16
 8001632:	0c1b      	lsrs	r3, r3, #16
 8001634:	f82e 3031 	strh.w	r3, [lr, r1, lsl #3]
 8001638:	f83e 3031 	ldrh.w	r3, [lr, r1, lsl #3]
 800163c:	b29b      	uxth	r3, r3
 800163e:	f443 4300 	orr.w	r3, r3, #32768	; 0x8000
 8001642:	f82e 3031 	strh.w	r3, [lr, r1, lsl #3]
 8001646:	f8b0 3050 	ldrh.w	r3, [r0, #80]	; 0x50
 800164a:	f200 4006 	addw	r0, r0, #1030	; 0x406
 800164e:	fa10 f083 	uxtah	r0, r0, r3
 8001652:	f830 3031 	ldrh.w	r3, [r0, r1, lsl #3]
 8001656:	f423 43f8 	bic.w	r3, r3, #31744	; 0x7c00
 800165a:	041b      	lsls	r3, r3, #16
 800165c:	0c1b      	lsrs	r3, r3, #16
 800165e:	f820 3031 	strh.w	r3, [r0, r1, lsl #3]
 8001662:	f830 3031 	ldrh.w	r3, [r0, r1, lsl #3]
 8001666:	b29b      	uxth	r3, r3
 8001668:	f443 4300 	orr.w	r3, r3, #32768	; 0x8000
 800166c:	f820 3031 	strh.w	r3, [r0, r1, lsl #3]
 8001670:	4620      	mov	r0, r4
 8001672:	f003 fb40 	bl	8004cf6 <HAL_PCD_DataInStageCallback>
 8001676:	2e00      	cmp	r6, #0
 8001678:	f000 80dd 	beq.w	8001836 <HAL_PCD_IRQHandler+0x742>
 800167c:	f899 1028 	ldrb.w	r1, [r9, #40]	; 0x28
 8001680:	6822      	ldr	r2, [r4, #0]
 8001682:	f832 3021 	ldrh.w	r3, [r2, r1, lsl #2]
 8001686:	f423 43e0 	bic.w	r3, r3, #28672	; 0x7000
 800168a:	f023 0370 	bic.w	r3, r3, #112	; 0x70
 800168e:	041b      	lsls	r3, r3, #16
 8001690:	0c1b      	lsrs	r3, r3, #16
 8001692:	f443 4340 	orr.w	r3, r3, #49152	; 0xc000
 8001696:	f043 0380 	orr.w	r3, r3, #128	; 0x80
 800169a:	f822 3021 	strh.w	r3, [r2, r1, lsl #2]
 800169e:	e0ca      	b.n	8001836 <HAL_PCD_IRQHandler+0x742>
 80016a0:	2d01      	cmp	r5, #1
 80016a2:	d1e5      	bne.n	8001670 <HAL_PCD_IRQHandler+0x57c>
 80016a4:	f8b0 5050 	ldrh.w	r5, [r0, #80]	; 0x50
 80016a8:	fa1e fe85 	uxtah	lr, lr, r5
 80016ac:	f82e 3031 	strh.w	r3, [lr, r1, lsl #3]
 80016b0:	f8b0 5050 	ldrh.w	r5, [r0, #80]	; 0x50
 80016b4:	f200 4006 	addw	r0, r0, #1030	; 0x406
 80016b8:	fa10 f585 	uxtah	r5, r0, r5
 80016bc:	f825 3031 	strh.w	r3, [r5, r1, lsl #3]
 80016c0:	e7d6      	b.n	8001670 <HAL_PCD_IRQHandler+0x57c>
 80016c2:	b16e      	cbz	r6, 80016e0 <HAL_PCD_IRQHandler+0x5ec>
 80016c4:	f830 3021 	ldrh.w	r3, [r0, r1, lsl #2]
 80016c8:	f423 43e0 	bic.w	r3, r3, #28672	; 0x7000
 80016cc:	f023 0370 	bic.w	r3, r3, #112	; 0x70
 80016d0:	041b      	lsls	r3, r3, #16
 80016d2:	0c1b      	lsrs	r3, r3, #16
 80016d4:	f443 4340 	orr.w	r3, r3, #49152	; 0xc000
 80016d8:	f043 0380 	orr.w	r3, r3, #128	; 0x80
 80016dc:	f820 3021 	strh.w	r3, [r0, r1, lsl #2]
 80016e0:	2628      	movs	r6, #40	; 0x28
 80016e2:	fb06 4605 	mla	r6, r6, r5, r4
 80016e6:	f896 304c 	ldrb.w	r3, [r6, #76]	; 0x4c
 80016ea:	2b01      	cmp	r3, #1
 80016ec:	f040 80a3 	bne.w	8001836 <HAL_PCD_IRQHandler+0x742>
 80016f0:	6c73      	ldr	r3, [r6, #68]	; 0x44
 80016f2:	6bf1      	ldr	r1, [r6, #60]	; 0x3c
 80016f4:	f8d6 a048 	ldr.w	sl, [r6, #72]	; 0x48
 80016f8:	4463      	add	r3, ip
 80016fa:	6473      	str	r3, [r6, #68]	; 0x44
 80016fc:	6bb3      	ldr	r3, [r6, #56]	; 0x38
 80016fe:	4461      	add	r1, ip
 8001700:	459a      	cmp	sl, r3
 8001702:	63f1      	str	r1, [r6, #60]	; 0x3c
 8001704:	d31a      	bcc.n	800173c <HAL_PCD_IRQHandler+0x648>
 8001706:	ebaa 0a03 	sub.w	sl, sl, r3
 800170a:	f8c6 a048 	str.w	sl, [r6, #72]	; 0x48
 800170e:	f899 6029 	ldrb.w	r6, [r9, #41]	; 0x29
 8001712:	fa1f fc83 	uxth.w	ip, r3
 8001716:	2e00      	cmp	r6, #0
 8001718:	d13b      	bne.n	8001792 <HAL_PCD_IRQHandler+0x69e>
 800171a:	f8b0 6050 	ldrh.w	r6, [r0, #80]	; 0x50
 800171e:	2b3e      	cmp	r3, #62	; 0x3e
 8001720:	fa1e fe86 	uxtah	lr, lr, r6
 8001724:	d917      	bls.n	8001756 <HAL_PCD_IRQHandler+0x662>
 8001726:	095e      	lsrs	r6, r3, #5
 8001728:	06db      	lsls	r3, r3, #27
 800172a:	bf08      	it	eq
 800172c:	f106 36ff 	addeq.w	r6, r6, #4294967295
 8001730:	ea47 2686 	orr.w	r6, r7, r6, lsl #10
 8001734:	b2b6      	uxth	r6, r6
 8001736:	f82e 6032 	strh.w	r6, [lr, r2, lsl #3]
 800173a:	e01c      	b.n	8001776 <HAL_PCD_IRQHandler+0x682>
 800173c:	f1ba 0f00 	cmp.w	sl, #0
 8001740:	d103      	bne.n	800174a <HAL_PCD_IRQHandler+0x656>
 8001742:	f886 a04c 	strb.w	sl, [r6, #76]	; 0x4c
 8001746:	4663      	mov	r3, ip
 8001748:	e7e1      	b.n	800170e <HAL_PCD_IRQHandler+0x61a>
 800174a:	2300      	movs	r3, #0
 800174c:	f886 304c 	strb.w	r3, [r6, #76]	; 0x4c
 8001750:	64b3      	str	r3, [r6, #72]	; 0x48
 8001752:	4653      	mov	r3, sl
 8001754:	e7db      	b.n	800170e <HAL_PCD_IRQHandler+0x61a>
 8001756:	b9b3      	cbnz	r3, 8001786 <HAL_PCD_IRQHandler+0x692>
 8001758:	f83e 3032 	ldrh.w	r3, [lr, r2, lsl #3]
 800175c:	f423 43f8 	bic.w	r3, r3, #31744	; 0x7c00
 8001760:	041b      	lsls	r3, r3, #16
 8001762:	0c1b      	lsrs	r3, r3, #16
 8001764:	f82e 3032 	strh.w	r3, [lr, r2, lsl #3]
 8001768:	f83e 3032 	ldrh.w	r3, [lr, r2, lsl #3]
 800176c:	b29b      	uxth	r3, r3
 800176e:	f443 4300 	orr.w	r3, r3, #32768	; 0x8000
 8001772:	f82e 3032 	strh.w	r3, [lr, r2, lsl #3]
 8001776:	2328      	movs	r3, #40	; 0x28
 8001778:	fb03 4505 	mla	r5, r3, r5, r4
 800177c:	4663      	mov	r3, ip
 800177e:	8e2a      	ldrh	r2, [r5, #48]	; 0x30
 8001780:	f002 f9df 	bl	8003b42 <USB_WritePMA>
 8001784:	e057      	b.n	8001836 <HAL_PCD_IRQHandler+0x742>
 8001786:	085e      	lsrs	r6, r3, #1
 8001788:	07db      	lsls	r3, r3, #31
 800178a:	bf48      	it	mi
 800178c:	3601      	addmi	r6, #1
 800178e:	02b6      	lsls	r6, r6, #10
 8001790:	e7d0      	b.n	8001734 <HAL_PCD_IRQHandler+0x640>
 8001792:	2e01      	cmp	r6, #1
 8001794:	bf02      	ittt	eq
 8001796:	f8b0 3050 	ldrheq.w	r3, [r0, #80]	; 0x50
 800179a:	fa1e fe83 	uxtaheq	lr, lr, r3
 800179e:	f82e c032 	strheq.w	ip, [lr, r2, lsl #3]
 80017a2:	e7e8      	b.n	8001776 <HAL_PCD_IRQHandler+0x682>
 80017a4:	f200 4e06 	addw	lr, r0, #1030	; 0x406
 80017a8:	fa1e fc8c 	uxtah	ip, lr, ip
 80017ac:	b2b6      	uxth	r6, r6
 80017ae:	f83c c031 	ldrh.w	ip, [ip, r1, lsl #3]
 80017b2:	f3cc 0c09 	ubfx	ip, ip, #0, #10
 80017b6:	459c      	cmp	ip, r3
 80017b8:	bf88      	it	hi
 80017ba:	4653      	movhi	r3, sl
 80017bc:	f04f 0a28 	mov.w	sl, #40	; 0x28
 80017c0:	fb0a 4a05 	mla	sl, sl, r5, r4
 80017c4:	bf98      	it	ls
 80017c6:	eba3 030c 	subls.w	r3, r3, ip
 80017ca:	f8ca 3040 	str.w	r3, [sl, #64]	; 0x40
 80017ce:	2b00      	cmp	r3, #0
 80017d0:	d153      	bne.n	800187a <HAL_PCD_IRQHandler+0x786>
 80017d2:	f899 5029 	ldrb.w	r5, [r9, #41]	; 0x29
 80017d6:	2d00      	cmp	r5, #0
 80017d8:	d140      	bne.n	800185c <HAL_PCD_IRQHandler+0x768>
 80017da:	f8b0 5050 	ldrh.w	r5, [r0, #80]	; 0x50
 80017de:	f200 4302 	addw	r3, r0, #1026	; 0x402
 80017e2:	fa13 f585 	uxtah	r5, r3, r5
 80017e6:	f835 3031 	ldrh.w	r3, [r5, r1, lsl #3]
 80017ea:	f423 43f8 	bic.w	r3, r3, #31744	; 0x7c00
 80017ee:	041b      	lsls	r3, r3, #16
 80017f0:	0c1b      	lsrs	r3, r3, #16
 80017f2:	f825 3031 	strh.w	r3, [r5, r1, lsl #3]
 80017f6:	f835 3031 	ldrh.w	r3, [r5, r1, lsl #3]
 80017fa:	b29b      	uxth	r3, r3
 80017fc:	f443 4300 	orr.w	r3, r3, #32768	; 0x8000
 8001800:	f825 3031 	strh.w	r3, [r5, r1, lsl #3]
 8001804:	f8b0 3050 	ldrh.w	r3, [r0, #80]	; 0x50
 8001808:	fa1e fe83 	uxtah	lr, lr, r3
 800180c:	f83e 3031 	ldrh.w	r3, [lr, r1, lsl #3]
 8001810:	f423 43f8 	bic.w	r3, r3, #31744	; 0x7c00
 8001814:	041b      	lsls	r3, r3, #16
 8001816:	0c1b      	lsrs	r3, r3, #16
 8001818:	f82e 3031 	strh.w	r3, [lr, r1, lsl #3]
 800181c:	f83e 3031 	ldrh.w	r3, [lr, r1, lsl #3]
 8001820:	b29b      	uxth	r3, r3
 8001822:	f443 4300 	orr.w	r3, r3, #32768	; 0x8000
 8001826:	f82e 3032 	strh.w	r3, [lr, r2, lsl #3]
 800182a:	4620      	mov	r0, r4
 800182c:	f003 fa63 	bl	8004cf6 <HAL_PCD_DataInStageCallback>
 8001830:	2e00      	cmp	r6, #0
 8001832:	f43f af23 	beq.w	800167c <HAL_PCD_IRQHandler+0x588>
 8001836:	f899 1028 	ldrb.w	r1, [r9, #40]	; 0x28
 800183a:	6822      	ldr	r2, [r4, #0]
 800183c:	f832 3021 	ldrh.w	r3, [r2, r1, lsl #2]
 8001840:	b29b      	uxth	r3, r3
 8001842:	f423 43e0 	bic.w	r3, r3, #28672	; 0x7000
 8001846:	f023 0340 	bic.w	r3, r3, #64	; 0x40
 800184a:	f083 0330 	eor.w	r3, r3, #48	; 0x30
 800184e:	f443 4300 	orr.w	r3, r3, #32768	; 0x8000
 8001852:	f043 0380 	orr.w	r3, r3, #128	; 0x80
 8001856:	f822 3021 	strh.w	r3, [r2, r1, lsl #2]
 800185a:	e458      	b.n	800110e <HAL_PCD_IRQHandler+0x1a>
 800185c:	2d01      	cmp	r5, #1
 800185e:	d1e4      	bne.n	800182a <HAL_PCD_IRQHandler+0x736>
 8001860:	f8b0 5050 	ldrh.w	r5, [r0, #80]	; 0x50
 8001864:	f200 4c02 	addw	ip, r0, #1026	; 0x402
 8001868:	fa1c f585 	uxtah	r5, ip, r5
 800186c:	f825 3031 	strh.w	r3, [r5, r1, lsl #3]
 8001870:	f8b0 0050 	ldrh.w	r0, [r0, #80]	; 0x50
 8001874:	fa1e fe80 	uxtah	lr, lr, r0
 8001878:	e7d5      	b.n	8001826 <HAL_PCD_IRQHandler+0x732>
 800187a:	b96e      	cbnz	r6, 8001898 <HAL_PCD_IRQHandler+0x7a4>
 800187c:	f830 3021 	ldrh.w	r3, [r0, r1, lsl #2]
 8001880:	f423 43e0 	bic.w	r3, r3, #28672	; 0x7000
 8001884:	f023 0370 	bic.w	r3, r3, #112	; 0x70
 8001888:	041b      	lsls	r3, r3, #16
 800188a:	0c1b      	lsrs	r3, r3, #16
 800188c:	f443 4340 	orr.w	r3, r3, #49152	; 0xc000
 8001890:	f043 0380 	orr.w	r3, r3, #128	; 0x80
 8001894:	f820 3021 	strh.w	r3, [r0, r1, lsl #2]
 8001898:	2628      	movs	r6, #40	; 0x28
 800189a:	fb06 4605 	mla	r6, r6, r5, r4
 800189e:	f896 304c 	ldrb.w	r3, [r6, #76]	; 0x4c
 80018a2:	2b01      	cmp	r3, #1
 80018a4:	d1c7      	bne.n	8001836 <HAL_PCD_IRQHandler+0x742>
 80018a6:	6c73      	ldr	r3, [r6, #68]	; 0x44
 80018a8:	6bf1      	ldr	r1, [r6, #60]	; 0x3c
 80018aa:	f8d6 a048 	ldr.w	sl, [r6, #72]	; 0x48
 80018ae:	4463      	add	r3, ip
 80018b0:	6473      	str	r3, [r6, #68]	; 0x44
 80018b2:	6bb3      	ldr	r3, [r6, #56]	; 0x38
 80018b4:	4461      	add	r1, ip
 80018b6:	459a      	cmp	sl, r3
 80018b8:	63f1      	str	r1, [r6, #60]	; 0x3c
 80018ba:	d31c      	bcc.n	80018f6 <HAL_PCD_IRQHandler+0x802>
 80018bc:	ebaa 0a03 	sub.w	sl, sl, r3
 80018c0:	f8c6 a048 	str.w	sl, [r6, #72]	; 0x48
 80018c4:	f899 c029 	ldrb.w	ip, [r9, #41]	; 0x29
 80018c8:	b29e      	uxth	r6, r3
 80018ca:	f1bc 0f00 	cmp.w	ip, #0
 80018ce:	d13e      	bne.n	800194e <HAL_PCD_IRQHandler+0x85a>
 80018d0:	f8b0 c050 	ldrh.w	ip, [r0, #80]	; 0x50
 80018d4:	2b3e      	cmp	r3, #62	; 0x3e
 80018d6:	fa1e fe8c 	uxtah	lr, lr, ip
 80018da:	d919      	bls.n	8001910 <HAL_PCD_IRQHandler+0x81c>
 80018dc:	ea4f 1c53 	mov.w	ip, r3, lsr #5
 80018e0:	06db      	lsls	r3, r3, #27
 80018e2:	bf08      	it	eq
 80018e4:	f10c 3cff 	addeq.w	ip, ip, #4294967295
 80018e8:	ea47 2c8c 	orr.w	ip, r7, ip, lsl #10
 80018ec:	fa1f fc8c 	uxth.w	ip, ip
 80018f0:	f82e c032 	strh.w	ip, [lr, r2, lsl #3]
 80018f4:	e01c      	b.n	8001930 <HAL_PCD_IRQHandler+0x83c>
 80018f6:	f1ba 0f00 	cmp.w	sl, #0
 80018fa:	d103      	bne.n	8001904 <HAL_PCD_IRQHandler+0x810>
 80018fc:	f886 a04c 	strb.w	sl, [r6, #76]	; 0x4c
 8001900:	4663      	mov	r3, ip
 8001902:	e7df      	b.n	80018c4 <HAL_PCD_IRQHandler+0x7d0>
 8001904:	2300      	movs	r3, #0
 8001906:	64b3      	str	r3, [r6, #72]	; 0x48
 8001908:	f886 304c 	strb.w	r3, [r6, #76]	; 0x4c
 800190c:	4653      	mov	r3, sl
 800190e:	e7d9      	b.n	80018c4 <HAL_PCD_IRQHandler+0x7d0>
 8001910:	b9a3      	cbnz	r3, 800193c <HAL_PCD_IRQHandler+0x848>
 8001912:	f83e 3032 	ldrh.w	r3, [lr, r2, lsl #3]
 8001916:	f423 43f8 	bic.w	r3, r3, #31744	; 0x7c00
 800191a:	041b      	lsls	r3, r3, #16
 800191c:	0c1b      	lsrs	r3, r3, #16
 800191e:	f82e 3032 	strh.w	r3, [lr, r2, lsl #3]
 8001922:	f83e 3032 	ldrh.w	r3, [lr, r2, lsl #3]
 8001926:	b29b      	uxth	r3, r3
 8001928:	f443 4300 	orr.w	r3, r3, #32768	; 0x8000
 800192c:	f82e 3032 	strh.w	r3, [lr, r2, lsl #3]
 8001930:	2328      	movs	r3, #40	; 0x28
 8001932:	fb03 4505 	mla	r5, r3, r5, r4
 8001936:	4633      	mov	r3, r6
 8001938:	8e6a      	ldrh	r2, [r5, #50]	; 0x32
 800193a:	e721      	b.n	8001780 <HAL_PCD_IRQHandler+0x68c>
 800193c:	ea4f 0c53 	mov.w	ip, r3, lsr #1
 8001940:	07db      	lsls	r3, r3, #31
 8001942:	bf48      	it	mi
 8001944:	f10c 0c01 	addmi.w	ip, ip, #1
 8001948:	ea4f 2c8c 	mov.w	ip, ip, lsl #10
 800194c:	e7ce      	b.n	80018ec <HAL_PCD_IRQHandler+0x7f8>
 800194e:	f1bc 0f01 	cmp.w	ip, #1
 8001952:	bf02      	ittt	eq
 8001954:	f8b0 3050 	ldrheq.w	r3, [r0, #80]	; 0x50
 8001958:	fa1e fe83 	uxtaheq	lr, lr, r3
 800195c:	f82e 6032 	strheq.w	r6, [lr, r2, lsl #3]
 8001960:	e7e6      	b.n	8001930 <HAL_PCD_IRQHandler+0x83c>
 8001962:	0543      	lsls	r3, r0, #21
 8001964:	d513      	bpl.n	800198e <HAL_PCD_IRQHandler+0x89a>
 8001966:	6822      	ldr	r2, [r4, #0]
 8001968:	9101      	str	r1, [sp, #4]
 800196a:	f8b2 3044 	ldrh.w	r3, [r2, #68]	; 0x44
 800196e:	f423 6380 	bic.w	r3, r3, #1024	; 0x400
 8001972:	041b      	lsls	r3, r3, #16
 8001974:	0c1b      	lsrs	r3, r3, #16
 8001976:	4620      	mov	r0, r4
 8001978:	f8a2 3044 	strh.w	r3, [r2, #68]	; 0x44
 800197c:	f003 f9c7 	bl	8004d0e <HAL_PCD_ResetCallback>
 8001980:	9901      	ldr	r1, [sp, #4]
 8001982:	4620      	mov	r0, r4
 8001984:	b003      	add	sp, #12
 8001986:	e8bd 4ff0 	ldmia.w	sp!, {r4, r5, r6, r7, r8, r9, sl, fp, lr}
 800198a:	f7ff bb9f 	b.w	80010cc <HAL_PCD_SetAddress>
 800198e:	0447      	lsls	r7, r0, #17
 8001990:	d50a      	bpl.n	80019a8 <HAL_PCD_IRQHandler+0x8b4>
 8001992:	6822      	ldr	r2, [r4, #0]
 8001994:	f8b2 3044 	ldrh.w	r3, [r2, #68]	; 0x44
 8001998:	f423 4380 	bic.w	r3, r3, #16384	; 0x4000
 800199c:	041b      	lsls	r3, r3, #16
 800199e:	0c1b      	lsrs	r3, r3, #16
 80019a0:	f8a2 3044 	strh.w	r3, [r2, #68]	; 0x44
 80019a4:	f7ff bbb8 	b.w	8001118 <HAL_PCD_IRQHandler+0x24>
 80019a8:	f410 5100 	ands.w	r1, r0, #8192	; 0x2000
 80019ac:	d005      	beq.n	80019ba <HAL_PCD_IRQHandler+0x8c6>
 80019ae:	6822      	ldr	r2, [r4, #0]
 80019b0:	f8b2 3044 	ldrh.w	r3, [r2, #68]	; 0x44
 80019b4:	f423 5300 	bic.w	r3, r3, #8192	; 0x2000
 80019b8:	e7f0      	b.n	800199c <HAL_PCD_IRQHandler+0x8a8>
 80019ba:	04c6      	lsls	r6, r0, #19
 80019bc:	d522      	bpl.n	8001a04 <HAL_PCD_IRQHandler+0x910>
 80019be:	6822      	ldr	r2, [r4, #0]
 80019c0:	f8b2 3040 	ldrh.w	r3, [r2, #64]	; 0x40
 80019c4:	f023 0304 	bic.w	r3, r3, #4
 80019c8:	041b      	lsls	r3, r3, #16
 80019ca:	0c1b      	lsrs	r3, r3, #16
 80019cc:	f8a2 3040 	strh.w	r3, [r2, #64]	; 0x40
 80019d0:	f8b2 3040 	ldrh.w	r3, [r2, #64]	; 0x40
 80019d4:	f023 0308 	bic.w	r3, r3, #8
 80019d8:	041b      	lsls	r3, r3, #16
 80019da:	0c1b      	lsrs	r3, r3, #16
 80019dc:	f8a2 3040 	strh.w	r3, [r2, #64]	; 0x40
 80019e0:	f894 32e0 	ldrb.w	r3, [r4, #736]	; 0x2e0
 80019e4:	2b01      	cmp	r3, #1
 80019e6:	d104      	bne.n	80019f2 <HAL_PCD_IRQHandler+0x8fe>
 80019e8:	f884 12e0 	strb.w	r1, [r4, #736]	; 0x2e0
 80019ec:	4620      	mov	r0, r4
 80019ee:	f003 fa6b 	bl	8004ec8 <HAL_PCDEx_LPM_Callback>
 80019f2:	4620      	mov	r0, r4
 80019f4:	f003 f9ae 	bl	8004d54 <HAL_PCD_ResumeCallback>
 80019f8:	6822      	ldr	r2, [r4, #0]
 80019fa:	f8b2 3044 	ldrh.w	r3, [r2, #68]	; 0x44
 80019fe:	f423 5380 	bic.w	r3, r3, #4096	; 0x1000
 8001a02:	e7cb      	b.n	800199c <HAL_PCD_IRQHandler+0x8a8>
 8001a04:	0505      	lsls	r5, r0, #20
 8001a06:	d51b      	bpl.n	8001a40 <HAL_PCD_IRQHandler+0x94c>
 8001a08:	6822      	ldr	r2, [r4, #0]
 8001a0a:	f8b2 3040 	ldrh.w	r3, [r2, #64]	; 0x40
 8001a0e:	b29b      	uxth	r3, r3
 8001a10:	f043 0308 	orr.w	r3, r3, #8
 8001a14:	f8a2 3040 	strh.w	r3, [r2, #64]	; 0x40
 8001a18:	f8b2 3044 	ldrh.w	r3, [r2, #68]	; 0x44
 8001a1c:	f423 6300 	bic.w	r3, r3, #2048	; 0x800
 8001a20:	041b      	lsls	r3, r3, #16
 8001a22:	0c1b      	lsrs	r3, r3, #16
 8001a24:	f8a2 3044 	strh.w	r3, [r2, #68]	; 0x44
 8001a28:	f8b2 3040 	ldrh.w	r3, [r2, #64]	; 0x40
 8001a2c:	b29b      	uxth	r3, r3
 8001a2e:	f043 0304 	orr.w	r3, r3, #4
 8001a32:	f8a2 3040 	strh.w	r3, [r2, #64]	; 0x40
 8001a36:	4620      	mov	r0, r4
 8001a38:	f003 f97c 	bl	8004d34 <HAL_PCD_SuspendCallback>
 8001a3c:	f7ff bb6c 	b.w	8001118 <HAL_PCD_IRQHandler+0x24>
 8001a40:	0601      	lsls	r1, r0, #24
 8001a42:	d52b      	bpl.n	8001a9c <HAL_PCD_IRQHandler+0x9a8>
 8001a44:	6823      	ldr	r3, [r4, #0]
 8001a46:	f8b3 2044 	ldrh.w	r2, [r3, #68]	; 0x44
 8001a4a:	f022 0280 	bic.w	r2, r2, #128	; 0x80
 8001a4e:	0412      	lsls	r2, r2, #16
 8001a50:	0c12      	lsrs	r2, r2, #16
 8001a52:	f8a3 2044 	strh.w	r2, [r3, #68]	; 0x44
 8001a56:	f894 22e0 	ldrb.w	r2, [r4, #736]	; 0x2e0
 8001a5a:	2a00      	cmp	r2, #0
 8001a5c:	d1eb      	bne.n	8001a36 <HAL_PCD_IRQHandler+0x942>
 8001a5e:	f8b3 2040 	ldrh.w	r2, [r3, #64]	; 0x40
 8001a62:	b292      	uxth	r2, r2
 8001a64:	f042 0204 	orr.w	r2, r2, #4
 8001a68:	f8a3 2040 	strh.w	r2, [r3, #64]	; 0x40
 8001a6c:	f8b3 2040 	ldrh.w	r2, [r3, #64]	; 0x40
 8001a70:	b292      	uxth	r2, r2
 8001a72:	f042 0208 	orr.w	r2, r2, #8
 8001a76:	2101      	movs	r1, #1
 8001a78:	f8a3 2040 	strh.w	r2, [r3, #64]	; 0x40
 8001a7c:	f884 12e0 	strb.w	r1, [r4, #736]	; 0x2e0
 8001a80:	f8b3 3054 	ldrh.w	r3, [r3, #84]	; 0x54
 8001a84:	f3c3 038d 	ubfx	r3, r3, #2, #14
 8001a88:	f003 033c 	and.w	r3, r3, #60	; 0x3c
 8001a8c:	4620      	mov	r0, r4
 8001a8e:	f8c4 32e4 	str.w	r3, [r4, #740]	; 0x2e4
 8001a92:	b003      	add	sp, #12
 8001a94:	e8bd 4ff0 	ldmia.w	sp!, {r4, r5, r6, r7, r8, r9, sl, fp, lr}
 8001a98:	f003 ba16 	b.w	8004ec8 <HAL_PCDEx_LPM_Callback>
 8001a9c:	0582      	lsls	r2, r0, #22
 8001a9e:	d50d      	bpl.n	8001abc <HAL_PCD_IRQHandler+0x9c8>
 8001aa0:	6822      	ldr	r2, [r4, #0]
 8001aa2:	f8b2 3044 	ldrh.w	r3, [r2, #68]	; 0x44
 8001aa6:	f423 7300 	bic.w	r3, r3, #512	; 0x200
 8001aaa:	041b      	lsls	r3, r3, #16
 8001aac:	0c1b      	lsrs	r3, r3, #16
 8001aae:	f8a2 3044 	strh.w	r3, [r2, #68]	; 0x44
 8001ab2:	4620      	mov	r0, r4
 8001ab4:	f003 f927 	bl	8004d06 <HAL_PCD_SOFCallback>
 8001ab8:	f7ff bb2e 	b.w	8001118 <HAL_PCD_IRQHandler+0x24>
 8001abc:	05c3      	lsls	r3, r0, #23
 8001abe:	f57f ab2b 	bpl.w	8001118 <HAL_PCD_IRQHandler+0x24>
 8001ac2:	6822      	ldr	r2, [r4, #0]
 8001ac4:	f8b2 3044 	ldrh.w	r3, [r2, #68]	; 0x44
 8001ac8:	f423 7380 	bic.w	r3, r3, #256	; 0x100
 8001acc:	e766      	b.n	800199c <HAL_PCD_IRQHandler+0x8a8>
 8001ace:	bf00      	nop

08001ad0 <HAL_PCD_EP_Open>:
 8001ad0:	b570      	push	{r4, r5, r6, lr}
 8001ad2:	f001 0507 	and.w	r5, r1, #7
 8001ad6:	0609      	lsls	r1, r1, #24
 8001ad8:	4604      	mov	r4, r0
 8001ada:	d522      	bpl.n	8001b22 <HAL_PCD_EP_Open+0x52>
 8001adc:	1c69      	adds	r1, r5, #1
 8001ade:	eb01 0181 	add.w	r1, r1, r1, lsl #2
 8001ae2:	eb00 01c1 	add.w	r1, r0, r1, lsl #3
 8001ae6:	2028      	movs	r0, #40	; 0x28
 8001ae8:	fb05 0000 	mla	r0, r5, r0, r0
 8001aec:	4420      	add	r0, r4
 8001aee:	2601      	movs	r6, #1
 8001af0:	7046      	strb	r6, [r0, #1]
 8001af2:	610a      	str	r2, [r1, #16]
 8001af4:	784a      	ldrb	r2, [r1, #1]
 8001af6:	700d      	strb	r5, [r1, #0]
 8001af8:	70cb      	strb	r3, [r1, #3]
 8001afa:	b102      	cbz	r2, 8001afe <HAL_PCD_EP_Open+0x2e>
 8001afc:	81cd      	strh	r5, [r1, #14]
 8001afe:	2b02      	cmp	r3, #2
 8001b00:	bf04      	itt	eq
 8001b02:	2300      	moveq	r3, #0
 8001b04:	710b      	strbeq	r3, [r1, #4]
 8001b06:	f894 32a8 	ldrb.w	r3, [r4, #680]	; 0x2a8
 8001b0a:	2b01      	cmp	r3, #1
 8001b0c:	d014      	beq.n	8001b38 <HAL_PCD_EP_Open+0x68>
 8001b0e:	2301      	movs	r3, #1
 8001b10:	6820      	ldr	r0, [r4, #0]
 8001b12:	f884 32a8 	strb.w	r3, [r4, #680]	; 0x2a8
 8001b16:	f001 fd6f 	bl	80035f8 <USB_ActivateEndpoint>
 8001b1a:	2000      	movs	r0, #0
 8001b1c:	f884 02a8 	strb.w	r0, [r4, #680]	; 0x2a8
 8001b20:	bd70      	pop	{r4, r5, r6, pc}
 8001b22:	2028      	movs	r0, #40	; 0x28
 8001b24:	fb00 4105 	mla	r1, r0, r5, r4
 8001b28:	fb00 4005 	mla	r0, r0, r5, r4
 8001b2c:	2600      	movs	r6, #0
 8001b2e:	f501 71b4 	add.w	r1, r1, #360	; 0x168
 8001b32:	f880 6169 	strb.w	r6, [r0, #361]	; 0x169
 8001b36:	e7dc      	b.n	8001af2 <HAL_PCD_EP_Open+0x22>
 8001b38:	2002      	movs	r0, #2
 8001b3a:	e7f1      	b.n	8001b20 <HAL_PCD_EP_Open+0x50>

08001b3c <HAL_PCD_EP_Close>:
 8001b3c:	060b      	lsls	r3, r1, #24
 8001b3e:	b510      	push	{r4, lr}
 8001b40:	f001 0207 	and.w	r2, r1, #7
 8001b44:	4604      	mov	r4, r0
 8001b46:	d519      	bpl.n	8001b7c <HAL_PCD_EP_Close+0x40>
 8001b48:	2328      	movs	r3, #40	; 0x28
 8001b4a:	1c51      	adds	r1, r2, #1
 8001b4c:	fb02 3303 	mla	r3, r2, r3, r3
 8001b50:	4403      	add	r3, r0
 8001b52:	eb01 0181 	add.w	r1, r1, r1, lsl #2
 8001b56:	eb00 01c1 	add.w	r1, r0, r1, lsl #3
 8001b5a:	2001      	movs	r0, #1
 8001b5c:	7058      	strb	r0, [r3, #1]
 8001b5e:	700a      	strb	r2, [r1, #0]
 8001b60:	f894 32a8 	ldrb.w	r3, [r4, #680]	; 0x2a8
 8001b64:	2b01      	cmp	r3, #1
 8001b66:	d014      	beq.n	8001b92 <HAL_PCD_EP_Close+0x56>
 8001b68:	2301      	movs	r3, #1
 8001b6a:	6820      	ldr	r0, [r4, #0]
 8001b6c:	f884 32a8 	strb.w	r3, [r4, #680]	; 0x2a8
 8001b70:	f001 fe98 	bl	80038a4 <USB_DeactivateEndpoint>
 8001b74:	2000      	movs	r0, #0
 8001b76:	f884 02a8 	strb.w	r0, [r4, #680]	; 0x2a8
 8001b7a:	bd10      	pop	{r4, pc}
 8001b7c:	2328      	movs	r3, #40	; 0x28
 8001b7e:	fb03 0102 	mla	r1, r3, r2, r0
 8001b82:	fb03 0302 	mla	r3, r3, r2, r0
 8001b86:	2000      	movs	r0, #0
 8001b88:	f501 71b4 	add.w	r1, r1, #360	; 0x168
 8001b8c:	f883 0169 	strb.w	r0, [r3, #361]	; 0x169
 8001b90:	e7e5      	b.n	8001b5e <HAL_PCD_EP_Close+0x22>
 8001b92:	2002      	movs	r0, #2
 8001b94:	e7f1      	b.n	8001b7a <HAL_PCD_EP_Close+0x3e>

08001b96 <HAL_PCD_EP_Receive>:
 8001b96:	b570      	push	{r4, r5, r6, lr}
 8001b98:	f001 0107 	and.w	r1, r1, #7
 8001b9c:	2628      	movs	r6, #40	; 0x28
 8001b9e:	fb06 0401 	mla	r4, r6, r1, r0
 8001ba2:	2500      	movs	r5, #0
 8001ba4:	f884 1168 	strb.w	r1, [r4, #360]	; 0x168
 8001ba8:	e9c4 235f 	strd	r2, r3, [r4, #380]	; 0x17c
 8001bac:	f8c4 5184 	str.w	r5, [r4, #388]	; 0x184
 8001bb0:	f884 5169 	strb.w	r5, [r4, #361]	; 0x169
 8001bb4:	f504 71b4 	add.w	r1, r4, #360	; 0x168
 8001bb8:	6800      	ldr	r0, [r0, #0]
 8001bba:	f001 ffd1 	bl	8003b60 <USB_EPStartXfer>
 8001bbe:	4628      	mov	r0, r5
 8001bc0:	bd70      	pop	{r4, r5, r6, pc}

08001bc2 <HAL_PCD_EP_GetRxCount>:
 8001bc2:	f001 0107 	and.w	r1, r1, #7
 8001bc6:	2328      	movs	r3, #40	; 0x28
 8001bc8:	fb03 0001 	mla	r0, r3, r1, r0
 8001bcc:	f8d0 0184 	ldr.w	r0, [r0, #388]	; 0x184
 8001bd0:	4770      	bx	lr

08001bd2 <HAL_PCD_EP_Transmit>:
 8001bd2:	b538      	push	{r3, r4, r5, lr}
 8001bd4:	f001 0107 	and.w	r1, r1, #7
 8001bd8:	2428      	movs	r4, #40	; 0x28
 8001bda:	fb04 0401 	mla	r4, r4, r1, r0
 8001bde:	e9c4 230f 	strd	r2, r3, [r4, #60]	; 0x3c
 8001be2:	64a3      	str	r3, [r4, #72]	; 0x48
 8001be4:	eb01 0381 	add.w	r3, r1, r1, lsl #2
 8001be8:	eb00 03c3 	add.w	r3, r0, r3, lsl #3
 8001bec:	2201      	movs	r2, #1
 8001bee:	2500      	movs	r5, #0
 8001bf0:	f884 204c 	strb.w	r2, [r4, #76]	; 0x4c
 8001bf4:	6465      	str	r5, [r4, #68]	; 0x44
 8001bf6:	f883 1028 	strb.w	r1, [r3, #40]	; 0x28
 8001bfa:	4411      	add	r1, r2
 8001bfc:	eb01 0181 	add.w	r1, r1, r1, lsl #2
 8001c00:	eb00 01c1 	add.w	r1, r0, r1, lsl #3
 8001c04:	f883 2029 	strb.w	r2, [r3, #41]	; 0x29
 8001c08:	6800      	ldr	r0, [r0, #0]
 8001c0a:	f001 ffa9 	bl	8003b60 <USB_EPStartXfer>
 8001c0e:	4628      	mov	r0, r5
 8001c10:	bd38      	pop	{r3, r4, r5, pc}

08001c12 <HAL_PCD_EP_SetStall>:
 8001c12:	b538      	push	{r3, r4, r5, lr}
 8001c14:	4604      	mov	r4, r0
 8001c16:	f001 0007 	and.w	r0, r1, #7
 8001c1a:	6863      	ldr	r3, [r4, #4]
 8001c1c:	4298      	cmp	r0, r3
 8001c1e:	d826      	bhi.n	8001c6e <HAL_PCD_EP_SetStall+0x5c>
 8001c20:	060b      	lsls	r3, r1, #24
 8001c22:	d51a      	bpl.n	8001c5a <HAL_PCD_EP_SetStall+0x48>
 8001c24:	2328      	movs	r3, #40	; 0x28
 8001c26:	fb00 3303 	mla	r3, r0, r3, r3
 8001c2a:	1c41      	adds	r1, r0, #1
 8001c2c:	4423      	add	r3, r4
 8001c2e:	eb01 0181 	add.w	r1, r1, r1, lsl #2
 8001c32:	2201      	movs	r2, #1
 8001c34:	eb04 01c1 	add.w	r1, r4, r1, lsl #3
 8001c38:	705a      	strb	r2, [r3, #1]
 8001c3a:	2301      	movs	r3, #1
 8001c3c:	708b      	strb	r3, [r1, #2]
 8001c3e:	7008      	strb	r0, [r1, #0]
 8001c40:	f894 22a8 	ldrb.w	r2, [r4, #680]	; 0x2a8
 8001c44:	429a      	cmp	r2, r3
 8001c46:	d014      	beq.n	8001c72 <HAL_PCD_EP_SetStall+0x60>
 8001c48:	6820      	ldr	r0, [r4, #0]
 8001c4a:	f884 32a8 	strb.w	r3, [r4, #680]	; 0x2a8
 8001c4e:	f001 fefa 	bl	8003a46 <USB_EPSetStall>
 8001c52:	2000      	movs	r0, #0
 8001c54:	f884 02a8 	strb.w	r0, [r4, #680]	; 0x2a8
 8001c58:	bd38      	pop	{r3, r4, r5, pc}
 8001c5a:	2528      	movs	r5, #40	; 0x28
 8001c5c:	fb05 4301 	mla	r3, r5, r1, r4
 8001c60:	461a      	mov	r2, r3
 8001c62:	f503 71b4 	add.w	r1, r3, #360	; 0x168
 8001c66:	2300      	movs	r3, #0
 8001c68:	f882 3169 	strb.w	r3, [r2, #361]	; 0x169
 8001c6c:	e7e5      	b.n	8001c3a <HAL_PCD_EP_SetStall+0x28>
 8001c6e:	2001      	movs	r0, #1
 8001c70:	e7f2      	b.n	8001c58 <HAL_PCD_EP_SetStall+0x46>
 8001c72:	2002      	movs	r0, #2
 8001c74:	e7f0      	b.n	8001c58 <HAL_PCD_EP_SetStall+0x46>

08001c76 <HAL_PCD_EP_ClrStall>:
 8001c76:	b538      	push	{r3, r4, r5, lr}
 8001c78:	6843      	ldr	r3, [r0, #4]
 8001c7a:	f001 020f 	and.w	r2, r1, #15
 8001c7e:	429a      	cmp	r2, r3
 8001c80:	4604      	mov	r4, r0
 8001c82:	d82a      	bhi.n	8001cda <HAL_PCD_EP_ClrStall+0x64>
 8001c84:	060b      	lsls	r3, r1, #24
 8001c86:	f001 0207 	and.w	r2, r1, #7
 8001c8a:	d51b      	bpl.n	8001cc4 <HAL_PCD_EP_ClrStall+0x4e>
 8001c8c:	2328      	movs	r3, #40	; 0x28
 8001c8e:	1c51      	adds	r1, r2, #1
 8001c90:	fb02 3303 	mla	r3, r2, r3, r3
 8001c94:	4403      	add	r3, r0
 8001c96:	eb01 0181 	add.w	r1, r1, r1, lsl #2
 8001c9a:	eb00 01c1 	add.w	r1, r0, r1, lsl #3
 8001c9e:	2001      	movs	r0, #1
 8001ca0:	7058      	strb	r0, [r3, #1]
 8001ca2:	2500      	movs	r5, #0
 8001ca4:	708d      	strb	r5, [r1, #2]
 8001ca6:	700a      	strb	r2, [r1, #0]
 8001ca8:	f894 32a8 	ldrb.w	r3, [r4, #680]	; 0x2a8
 8001cac:	2b01      	cmp	r3, #1
 8001cae:	d016      	beq.n	8001cde <HAL_PCD_EP_ClrStall+0x68>
 8001cb0:	2301      	movs	r3, #1
 8001cb2:	6820      	ldr	r0, [r4, #0]
 8001cb4:	f884 32a8 	strb.w	r3, [r4, #680]	; 0x2a8
 8001cb8:	f001 fee5 	bl	8003a86 <USB_EPClearStall>
 8001cbc:	f884 52a8 	strb.w	r5, [r4, #680]	; 0x2a8
 8001cc0:	4628      	mov	r0, r5
 8001cc2:	bd38      	pop	{r3, r4, r5, pc}
 8001cc4:	2328      	movs	r3, #40	; 0x28
 8001cc6:	fb03 0102 	mla	r1, r3, r2, r0
 8001cca:	fb03 0302 	mla	r3, r3, r2, r0
 8001cce:	2000      	movs	r0, #0
 8001cd0:	f501 71b4 	add.w	r1, r1, #360	; 0x168
 8001cd4:	f883 0169 	strb.w	r0, [r3, #361]	; 0x169
 8001cd8:	e7e3      	b.n	8001ca2 <HAL_PCD_EP_ClrStall+0x2c>
 8001cda:	2001      	movs	r0, #1
 8001cdc:	e7f1      	b.n	8001cc2 <HAL_PCD_EP_ClrStall+0x4c>
 8001cde:	2002      	movs	r0, #2
 8001ce0:	e7ef      	b.n	8001cc2 <HAL_PCD_EP_ClrStall+0x4c>

08001ce2 <HAL_PCDEx_PMAConfig>:
 8001ce2:	f011 0f80 	tst.w	r1, #128	; 0x80
 8001ce6:	bf18      	it	ne
 8001ce8:	f001 0107 	andne.w	r1, r1, #7
 8001cec:	b510      	push	{r4, lr}
 8001cee:	f04f 0428 	mov.w	r4, #40	; 0x28
 8001cf2:	bf15      	itete	ne
 8001cf4:	fb01 4104 	mlane	r1, r1, r4, r4
 8001cf8:	fb04 0001 	mlaeq	r0, r4, r1, r0
 8001cfc:	1840      	addne	r0, r0, r1
 8001cfe:	f500 70b4 	addeq.w	r0, r0, #360	; 0x168
 8001d02:	b299      	uxth	r1, r3
 8001d04:	b91a      	cbnz	r2, 8001d0e <HAL_PCDEx_PMAConfig+0x2c>
 8001d06:	7302      	strb	r2, [r0, #12]
 8001d08:	80c1      	strh	r1, [r0, #6]
 8001d0a:	2000      	movs	r0, #0
 8001d0c:	bd10      	pop	{r4, pc}
 8001d0e:	2201      	movs	r2, #1
 8001d10:	7302      	strb	r2, [r0, #12]
 8001d12:	6083      	str	r3, [r0, #8]
 8001d14:	e7f9      	b.n	8001d0a <HAL_PCDEx_PMAConfig+0x28>

08001d16 <HAL_PCDEx_ActivateLPM>:
 8001d16:	6802      	ldr	r2, [r0, #0]
 8001d18:	2100      	movs	r1, #0
 8001d1a:	f880 12e0 	strb.w	r1, [r0, #736]	; 0x2e0
 8001d1e:	2301      	movs	r3, #1
 8001d20:	f8c0 32e8 	str.w	r3, [r0, #744]	; 0x2e8
 8001d24:	f8b2 3054 	ldrh.w	r3, [r2, #84]	; 0x54
 8001d28:	b29b      	uxth	r3, r3
 8001d2a:	f043 0301 	orr.w	r3, r3, #1
 8001d2e:	f8a2 3054 	strh.w	r3, [r2, #84]	; 0x54
 8001d32:	f8b2 3054 	ldrh.w	r3, [r2, #84]	; 0x54
 8001d36:	b29b      	uxth	r3, r3
 8001d38:	f043 0302 	orr.w	r3, r3, #2
 8001d3c:	f8a2 3054 	strh.w	r3, [r2, #84]	; 0x54
 8001d40:	4608      	mov	r0, r1
 8001d42:	4770      	bx	lr

08001d44 <HAL_PWREx_ControlVoltageScaling>:
 8001d44:	4b29      	ldr	r3, [pc, #164]	; (8001dec <HAL_PWREx_ControlVoltageScaling+0xa8>)
 8001d46:	681a      	ldr	r2, [r3, #0]
 8001d48:	bb30      	cbnz	r0, 8001d98 <HAL_PWREx_ControlVoltageScaling+0x54>
 8001d4a:	f402 62c0 	and.w	r2, r2, #1536	; 0x600
 8001d4e:	f5b2 6f80 	cmp.w	r2, #1024	; 0x400
 8001d52:	f8d3 2080 	ldr.w	r2, [r3, #128]	; 0x80
 8001d56:	f422 7280 	bic.w	r2, r2, #256	; 0x100
 8001d5a:	f8c3 2080 	str.w	r2, [r3, #128]	; 0x80
 8001d5e:	d11a      	bne.n	8001d96 <HAL_PWREx_ControlVoltageScaling+0x52>
 8001d60:	681a      	ldr	r2, [r3, #0]
 8001d62:	f422 62c0 	bic.w	r2, r2, #1536	; 0x600
 8001d66:	f442 7200 	orr.w	r2, r2, #512	; 0x200
 8001d6a:	601a      	str	r2, [r3, #0]
 8001d6c:	4a20      	ldr	r2, [pc, #128]	; (8001df0 <HAL_PWREx_ControlVoltageScaling+0xac>)
 8001d6e:	6812      	ldr	r2, [r2, #0]
 8001d70:	2132      	movs	r1, #50	; 0x32
 8001d72:	434a      	muls	r2, r1
 8001d74:	491f      	ldr	r1, [pc, #124]	; (8001df4 <HAL_PWREx_ControlVoltageScaling+0xb0>)
 8001d76:	fbb2 f2f1 	udiv	r2, r2, r1
 8001d7a:	3201      	adds	r2, #1
 8001d7c:	6959      	ldr	r1, [r3, #20]
 8001d7e:	0549      	lsls	r1, r1, #21
 8001d80:	d500      	bpl.n	8001d84 <HAL_PWREx_ControlVoltageScaling+0x40>
 8001d82:	b922      	cbnz	r2, 8001d8e <HAL_PWREx_ControlVoltageScaling+0x4a>
 8001d84:	695b      	ldr	r3, [r3, #20]
 8001d86:	0558      	lsls	r0, r3, #21
 8001d88:	d403      	bmi.n	8001d92 <HAL_PWREx_ControlVoltageScaling+0x4e>
 8001d8a:	2000      	movs	r0, #0
 8001d8c:	4770      	bx	lr
 8001d8e:	3a01      	subs	r2, #1
 8001d90:	e7f4      	b.n	8001d7c <HAL_PWREx_ControlVoltageScaling+0x38>
 8001d92:	2003      	movs	r0, #3
 8001d94:	4770      	bx	lr
 8001d96:	4770      	bx	lr
 8001d98:	f5b0 7f00 	cmp.w	r0, #512	; 0x200
 8001d9c:	d11f      	bne.n	8001dde <HAL_PWREx_ControlVoltageScaling+0x9a>
 8001d9e:	f402 62c0 	and.w	r2, r2, #1536	; 0x600
 8001da2:	f5b2 6f80 	cmp.w	r2, #1024	; 0x400
 8001da6:	f8d3 2080 	ldr.w	r2, [r3, #128]	; 0x80
 8001daa:	f442 7280 	orr.w	r2, r2, #256	; 0x100
 8001dae:	f8c3 2080 	str.w	r2, [r3, #128]	; 0x80
 8001db2:	d1ea      	bne.n	8001d8a <HAL_PWREx_ControlVoltageScaling+0x46>
 8001db4:	681a      	ldr	r2, [r3, #0]
 8001db6:	f422 62c0 	bic.w	r2, r2, #1536	; 0x600
 8001dba:	f442 7200 	orr.w	r2, r2, #512	; 0x200
 8001dbe:	601a      	str	r2, [r3, #0]
 8001dc0:	4a0b      	ldr	r2, [pc, #44]	; (8001df0 <HAL_PWREx_ControlVoltageScaling+0xac>)
 8001dc2:	6812      	ldr	r2, [r2, #0]
 8001dc4:	2132      	movs	r1, #50	; 0x32
 8001dc6:	434a      	muls	r2, r1
 8001dc8:	490a      	ldr	r1, [pc, #40]	; (8001df4 <HAL_PWREx_ControlVoltageScaling+0xb0>)
 8001dca:	fbb2 f2f1 	udiv	r2, r2, r1
 8001dce:	3201      	adds	r2, #1
 8001dd0:	6959      	ldr	r1, [r3, #20]
 8001dd2:	0549      	lsls	r1, r1, #21
 8001dd4:	d5d6      	bpl.n	8001d84 <HAL_PWREx_ControlVoltageScaling+0x40>
 8001dd6:	2a00      	cmp	r2, #0
 8001dd8:	d0d4      	beq.n	8001d84 <HAL_PWREx_ControlVoltageScaling+0x40>
 8001dda:	3a01      	subs	r2, #1
 8001ddc:	e7f8      	b.n	8001dd0 <HAL_PWREx_ControlVoltageScaling+0x8c>
 8001dde:	f422 62c0 	bic.w	r2, r2, #1536	; 0x600
 8001de2:	f442 6280 	orr.w	r2, r2, #1024	; 0x400
 8001de6:	601a      	str	r2, [r3, #0]
 8001de8:	e7cf      	b.n	8001d8a <HAL_PWREx_ControlVoltageScaling+0x46>
 8001dea:	bf00      	nop
 8001dec:	40007000 	.word	0x40007000
 8001df0:	20000028 	.word	0x20000028
 8001df4:	000f4240 	.word	0x000f4240

08001df8 <HAL_RCC_OscConfig>:
 8001df8:	e92d 41f3 	stmdb	sp!, {r0, r1, r4, r5, r6, r7, r8, lr}
 8001dfc:	4604      	mov	r4, r0
 8001dfe:	b340      	cbz	r0, 8001e52 <HAL_RCC_OscConfig+0x5a>
 8001e00:	6803      	ldr	r3, [r0, #0]
 8001e02:	07df      	lsls	r7, r3, #31
 8001e04:	d414      	bmi.n	8001e30 <HAL_RCC_OscConfig+0x38>
 8001e06:	6823      	ldr	r3, [r4, #0]
 8001e08:	079e      	lsls	r6, r3, #30
 8001e0a:	d45b      	bmi.n	8001ec4 <HAL_RCC_OscConfig+0xcc>
 8001e0c:	6823      	ldr	r3, [r4, #0]
 8001e0e:	071e      	lsls	r6, r3, #28
 8001e10:	f100 80a4 	bmi.w	8001f5c <HAL_RCC_OscConfig+0x164>
 8001e14:	6823      	ldr	r3, [r4, #0]
 8001e16:	075d      	lsls	r5, r3, #29
 8001e18:	f100 80cb 	bmi.w	8001fb2 <HAL_RCC_OscConfig+0x1ba>
 8001e1c:	6823      	ldr	r3, [r4, #0]
 8001e1e:	069b      	lsls	r3, r3, #26
 8001e20:	f100 8132 	bmi.w	8002088 <HAL_RCC_OscConfig+0x290>
 8001e24:	69e0      	ldr	r0, [r4, #28]
 8001e26:	2800      	cmp	r0, #0
 8001e28:	f040 8160 	bne.w	80020ec <HAL_RCC_OscConfig+0x2f4>
 8001e2c:	2000      	movs	r0, #0
 8001e2e:	e028      	b.n	8001e82 <HAL_RCC_OscConfig+0x8a>
 8001e30:	4da1      	ldr	r5, [pc, #644]	; (80020b8 <HAL_RCC_OscConfig+0x2c0>)
 8001e32:	68ab      	ldr	r3, [r5, #8]
 8001e34:	68ea      	ldr	r2, [r5, #12]
 8001e36:	f003 030c 	and.w	r3, r3, #12
 8001e3a:	2b0c      	cmp	r3, #12
 8001e3c:	d10b      	bne.n	8001e56 <HAL_RCC_OscConfig+0x5e>
 8001e3e:	f002 0303 	and.w	r3, r2, #3
 8001e42:	2b03      	cmp	r3, #3
 8001e44:	d109      	bne.n	8001e5a <HAL_RCC_OscConfig+0x62>
 8001e46:	682b      	ldr	r3, [r5, #0]
 8001e48:	039d      	lsls	r5, r3, #14
 8001e4a:	d5dc      	bpl.n	8001e06 <HAL_RCC_OscConfig+0xe>
 8001e4c:	6863      	ldr	r3, [r4, #4]
 8001e4e:	2b00      	cmp	r3, #0
 8001e50:	d1d9      	bne.n	8001e06 <HAL_RCC_OscConfig+0xe>
 8001e52:	2001      	movs	r0, #1
 8001e54:	e015      	b.n	8001e82 <HAL_RCC_OscConfig+0x8a>
 8001e56:	2b08      	cmp	r3, #8
 8001e58:	e7f4      	b.n	8001e44 <HAL_RCC_OscConfig+0x4c>
 8001e5a:	6863      	ldr	r3, [r4, #4]
 8001e5c:	f5b3 3f80 	cmp.w	r3, #65536	; 0x10000
 8001e60:	d112      	bne.n	8001e88 <HAL_RCC_OscConfig+0x90>
 8001e62:	682b      	ldr	r3, [r5, #0]
 8001e64:	f443 3380 	orr.w	r3, r3, #65536	; 0x10000
 8001e68:	602b      	str	r3, [r5, #0]
 8001e6a:	f7fe ff23 	bl	8000cb4 <HAL_GetTick>
 8001e6e:	4606      	mov	r6, r0
 8001e70:	682b      	ldr	r3, [r5, #0]
 8001e72:	0398      	lsls	r0, r3, #14
 8001e74:	d4c7      	bmi.n	8001e06 <HAL_RCC_OscConfig+0xe>
 8001e76:	f7fe ff1d 	bl	8000cb4 <HAL_GetTick>
 8001e7a:	1b80      	subs	r0, r0, r6
 8001e7c:	2864      	cmp	r0, #100	; 0x64
 8001e7e:	d9f7      	bls.n	8001e70 <HAL_RCC_OscConfig+0x78>
 8001e80:	2003      	movs	r0, #3
 8001e82:	b002      	add	sp, #8
 8001e84:	e8bd 81f0 	ldmia.w	sp!, {r4, r5, r6, r7, r8, pc}
 8001e88:	f5b3 2fa0 	cmp.w	r3, #327680	; 0x50000
 8001e8c:	d104      	bne.n	8001e98 <HAL_RCC_OscConfig+0xa0>
 8001e8e:	682b      	ldr	r3, [r5, #0]
 8001e90:	f443 2380 	orr.w	r3, r3, #262144	; 0x40000
 8001e94:	602b      	str	r3, [r5, #0]
 8001e96:	e7e4      	b.n	8001e62 <HAL_RCC_OscConfig+0x6a>
 8001e98:	682a      	ldr	r2, [r5, #0]
 8001e9a:	f422 3280 	bic.w	r2, r2, #65536	; 0x10000
 8001e9e:	602a      	str	r2, [r5, #0]
 8001ea0:	682a      	ldr	r2, [r5, #0]
 8001ea2:	f422 2280 	bic.w	r2, r2, #262144	; 0x40000
 8001ea6:	602a      	str	r2, [r5, #0]
 8001ea8:	2b00      	cmp	r3, #0
 8001eaa:	d1de      	bne.n	8001e6a <HAL_RCC_OscConfig+0x72>
 8001eac:	f7fe ff02 	bl	8000cb4 <HAL_GetTick>
 8001eb0:	4606      	mov	r6, r0
 8001eb2:	682b      	ldr	r3, [r5, #0]
 8001eb4:	0399      	lsls	r1, r3, #14
 8001eb6:	d5a6      	bpl.n	8001e06 <HAL_RCC_OscConfig+0xe>
 8001eb8:	f7fe fefc 	bl	8000cb4 <HAL_GetTick>
 8001ebc:	1b80      	subs	r0, r0, r6
 8001ebe:	2864      	cmp	r0, #100	; 0x64
 8001ec0:	d9f7      	bls.n	8001eb2 <HAL_RCC_OscConfig+0xba>
 8001ec2:	e7dd      	b.n	8001e80 <HAL_RCC_OscConfig+0x88>
 8001ec4:	4d7c      	ldr	r5, [pc, #496]	; (80020b8 <HAL_RCC_OscConfig+0x2c0>)
 8001ec6:	68ab      	ldr	r3, [r5, #8]
 8001ec8:	68ea      	ldr	r2, [r5, #12]
 8001eca:	f003 030c 	and.w	r3, r3, #12
 8001ece:	2b0c      	cmp	r3, #12
 8001ed0:	d117      	bne.n	8001f02 <HAL_RCC_OscConfig+0x10a>
 8001ed2:	f002 0303 	and.w	r3, r2, #3
 8001ed6:	2b02      	cmp	r3, #2
 8001ed8:	d115      	bne.n	8001f06 <HAL_RCC_OscConfig+0x10e>
 8001eda:	682b      	ldr	r3, [r5, #0]
 8001edc:	055a      	lsls	r2, r3, #21
 8001ede:	d502      	bpl.n	8001ee6 <HAL_RCC_OscConfig+0xee>
 8001ee0:	68e3      	ldr	r3, [r4, #12]
 8001ee2:	2b00      	cmp	r3, #0
 8001ee4:	d0b5      	beq.n	8001e52 <HAL_RCC_OscConfig+0x5a>
 8001ee6:	686b      	ldr	r3, [r5, #4]
 8001ee8:	6922      	ldr	r2, [r4, #16]
 8001eea:	f023 43fe 	bic.w	r3, r3, #2130706432	; 0x7f000000
 8001eee:	ea43 6302 	orr.w	r3, r3, r2, lsl #24
 8001ef2:	606b      	str	r3, [r5, #4]
 8001ef4:	4b71      	ldr	r3, [pc, #452]	; (80020bc <HAL_RCC_OscConfig+0x2c4>)
 8001ef6:	6818      	ldr	r0, [r3, #0]
 8001ef8:	f7fe fe9a 	bl	8000c30 <HAL_InitTick>
 8001efc:	2800      	cmp	r0, #0
 8001efe:	d085      	beq.n	8001e0c <HAL_RCC_OscConfig+0x14>
 8001f00:	e7a7      	b.n	8001e52 <HAL_RCC_OscConfig+0x5a>
 8001f02:	2b04      	cmp	r3, #4
 8001f04:	e7e8      	b.n	8001ed8 <HAL_RCC_OscConfig+0xe0>
 8001f06:	68e3      	ldr	r3, [r4, #12]
 8001f08:	b1bb      	cbz	r3, 8001f3a <HAL_RCC_OscConfig+0x142>
 8001f0a:	682b      	ldr	r3, [r5, #0]
 8001f0c:	f443 7380 	orr.w	r3, r3, #256	; 0x100
 8001f10:	602b      	str	r3, [r5, #0]
 8001f12:	f7fe fecf 	bl	8000cb4 <HAL_GetTick>
 8001f16:	4606      	mov	r6, r0
 8001f18:	682b      	ldr	r3, [r5, #0]
 8001f1a:	055b      	lsls	r3, r3, #21
 8001f1c:	d507      	bpl.n	8001f2e <HAL_RCC_OscConfig+0x136>
 8001f1e:	686b      	ldr	r3, [r5, #4]
 8001f20:	6922      	ldr	r2, [r4, #16]
 8001f22:	f023 43fe 	bic.w	r3, r3, #2130706432	; 0x7f000000
 8001f26:	ea43 6302 	orr.w	r3, r3, r2, lsl #24
 8001f2a:	606b      	str	r3, [r5, #4]
 8001f2c:	e76e      	b.n	8001e0c <HAL_RCC_OscConfig+0x14>
 8001f2e:	f7fe fec1 	bl	8000cb4 <HAL_GetTick>
 8001f32:	1b80      	subs	r0, r0, r6
 8001f34:	2802      	cmp	r0, #2
 8001f36:	d9ef      	bls.n	8001f18 <HAL_RCC_OscConfig+0x120>
 8001f38:	e7a2      	b.n	8001e80 <HAL_RCC_OscConfig+0x88>
 8001f3a:	682b      	ldr	r3, [r5, #0]
 8001f3c:	f423 7380 	bic.w	r3, r3, #256	; 0x100
 8001f40:	602b      	str	r3, [r5, #0]
 8001f42:	f7fe feb7 	bl	8000cb4 <HAL_GetTick>
 8001f46:	4606      	mov	r6, r0
 8001f48:	682b      	ldr	r3, [r5, #0]
 8001f4a:	055f      	lsls	r7, r3, #21
 8001f4c:	f57f af5e 	bpl.w	8001e0c <HAL_RCC_OscConfig+0x14>
 8001f50:	f7fe feb0 	bl	8000cb4 <HAL_GetTick>
 8001f54:	1b80      	subs	r0, r0, r6
 8001f56:	2802      	cmp	r0, #2
 8001f58:	d9f6      	bls.n	8001f48 <HAL_RCC_OscConfig+0x150>
 8001f5a:	e791      	b.n	8001e80 <HAL_RCC_OscConfig+0x88>
 8001f5c:	6963      	ldr	r3, [r4, #20]
 8001f5e:	4d56      	ldr	r5, [pc, #344]	; (80020b8 <HAL_RCC_OscConfig+0x2c0>)
 8001f60:	b19b      	cbz	r3, 8001f8a <HAL_RCC_OscConfig+0x192>
 8001f62:	f8d5 3094 	ldr.w	r3, [r5, #148]	; 0x94
 8001f66:	f043 0301 	orr.w	r3, r3, #1
 8001f6a:	f8c5 3094 	str.w	r3, [r5, #148]	; 0x94
 8001f6e:	f7fe fea1 	bl	8000cb4 <HAL_GetTick>
 8001f72:	4606      	mov	r6, r0
 8001f74:	f8d5 3094 	ldr.w	r3, [r5, #148]	; 0x94
 8001f78:	0798      	lsls	r0, r3, #30
 8001f7a:	f53f af4b 	bmi.w	8001e14 <HAL_RCC_OscConfig+0x1c>
 8001f7e:	f7fe fe99 	bl	8000cb4 <HAL_GetTick>
 8001f82:	1b80      	subs	r0, r0, r6
 8001f84:	2802      	cmp	r0, #2
 8001f86:	d9f5      	bls.n	8001f74 <HAL_RCC_OscConfig+0x17c>
 8001f88:	e77a      	b.n	8001e80 <HAL_RCC_OscConfig+0x88>
 8001f8a:	f8d5 3094 	ldr.w	r3, [r5, #148]	; 0x94
 8001f8e:	f023 0301 	bic.w	r3, r3, #1
 8001f92:	f8c5 3094 	str.w	r3, [r5, #148]	; 0x94
 8001f96:	f7fe fe8d 	bl	8000cb4 <HAL_GetTick>
 8001f9a:	4606      	mov	r6, r0
 8001f9c:	f8d5 3094 	ldr.w	r3, [r5, #148]	; 0x94
 8001fa0:	0799      	lsls	r1, r3, #30
 8001fa2:	f57f af37 	bpl.w	8001e14 <HAL_RCC_OscConfig+0x1c>
 8001fa6:	f7fe fe85 	bl	8000cb4 <HAL_GetTick>
 8001faa:	1b80      	subs	r0, r0, r6
 8001fac:	2802      	cmp	r0, #2
 8001fae:	d9f5      	bls.n	8001f9c <HAL_RCC_OscConfig+0x1a4>
 8001fb0:	e766      	b.n	8001e80 <HAL_RCC_OscConfig+0x88>
 8001fb2:	4d41      	ldr	r5, [pc, #260]	; (80020b8 <HAL_RCC_OscConfig+0x2c0>)
 8001fb4:	6dab      	ldr	r3, [r5, #88]	; 0x58
 8001fb6:	00da      	lsls	r2, r3, #3
 8001fb8:	d427      	bmi.n	800200a <HAL_RCC_OscConfig+0x212>
 8001fba:	6dab      	ldr	r3, [r5, #88]	; 0x58
 8001fbc:	f043 5380 	orr.w	r3, r3, #268435456	; 0x10000000
 8001fc0:	65ab      	str	r3, [r5, #88]	; 0x58
 8001fc2:	6dab      	ldr	r3, [r5, #88]	; 0x58
 8001fc4:	f003 5380 	and.w	r3, r3, #268435456	; 0x10000000
 8001fc8:	9301      	str	r3, [sp, #4]
 8001fca:	9b01      	ldr	r3, [sp, #4]
 8001fcc:	2701      	movs	r7, #1
 8001fce:	4e3c      	ldr	r6, [pc, #240]	; (80020c0 <HAL_RCC_OscConfig+0x2c8>)
 8001fd0:	6833      	ldr	r3, [r6, #0]
 8001fd2:	05db      	lsls	r3, r3, #23
 8001fd4:	d51b      	bpl.n	800200e <HAL_RCC_OscConfig+0x216>
 8001fd6:	68a3      	ldr	r3, [r4, #8]
 8001fd8:	2b01      	cmp	r3, #1
 8001fda:	d129      	bne.n	8002030 <HAL_RCC_OscConfig+0x238>
 8001fdc:	f8d5 3090 	ldr.w	r3, [r5, #144]	; 0x90
 8001fe0:	f043 0301 	orr.w	r3, r3, #1
 8001fe4:	f8c5 3090 	str.w	r3, [r5, #144]	; 0x90
 8001fe8:	f7fe fe64 	bl	8000cb4 <HAL_GetTick>
 8001fec:	f241 3888 	movw	r8, #5000	; 0x1388
 8001ff0:	4606      	mov	r6, r0
 8001ff2:	f8d5 3090 	ldr.w	r3, [r5, #144]	; 0x90
 8001ff6:	0799      	lsls	r1, r3, #30
 8001ff8:	d540      	bpl.n	800207c <HAL_RCC_OscConfig+0x284>
 8001ffa:	2f00      	cmp	r7, #0
 8001ffc:	f43f af0e 	beq.w	8001e1c <HAL_RCC_OscConfig+0x24>
 8002000:	6dab      	ldr	r3, [r5, #88]	; 0x58
 8002002:	f023 5380 	bic.w	r3, r3, #268435456	; 0x10000000
 8002006:	65ab      	str	r3, [r5, #88]	; 0x58
 8002008:	e708      	b.n	8001e1c <HAL_RCC_OscConfig+0x24>
 800200a:	2700      	movs	r7, #0
 800200c:	e7df      	b.n	8001fce <HAL_RCC_OscConfig+0x1d6>
 800200e:	6833      	ldr	r3, [r6, #0]
 8002010:	f443 7380 	orr.w	r3, r3, #256	; 0x100
 8002014:	6033      	str	r3, [r6, #0]
 8002016:	f7fe fe4d 	bl	8000cb4 <HAL_GetTick>
 800201a:	4680      	mov	r8, r0
 800201c:	6833      	ldr	r3, [r6, #0]
 800201e:	05d8      	lsls	r0, r3, #23
 8002020:	d4d9      	bmi.n	8001fd6 <HAL_RCC_OscConfig+0x1de>
 8002022:	f7fe fe47 	bl	8000cb4 <HAL_GetTick>
 8002026:	eba0 0008 	sub.w	r0, r0, r8
 800202a:	2802      	cmp	r0, #2
 800202c:	d9f6      	bls.n	800201c <HAL_RCC_OscConfig+0x224>
 800202e:	e727      	b.n	8001e80 <HAL_RCC_OscConfig+0x88>
 8002030:	2b05      	cmp	r3, #5
 8002032:	d106      	bne.n	8002042 <HAL_RCC_OscConfig+0x24a>
 8002034:	f8d5 3090 	ldr.w	r3, [r5, #144]	; 0x90
 8002038:	f043 0304 	orr.w	r3, r3, #4
 800203c:	f8c5 3090 	str.w	r3, [r5, #144]	; 0x90
 8002040:	e7cc      	b.n	8001fdc <HAL_RCC_OscConfig+0x1e4>
 8002042:	f8d5 2090 	ldr.w	r2, [r5, #144]	; 0x90
 8002046:	f022 0201 	bic.w	r2, r2, #1
 800204a:	f8c5 2090 	str.w	r2, [r5, #144]	; 0x90
 800204e:	f8d5 2090 	ldr.w	r2, [r5, #144]	; 0x90
 8002052:	f022 0204 	bic.w	r2, r2, #4
 8002056:	f8c5 2090 	str.w	r2, [r5, #144]	; 0x90
 800205a:	2b00      	cmp	r3, #0
 800205c:	d1c4      	bne.n	8001fe8 <HAL_RCC_OscConfig+0x1f0>
 800205e:	f7fe fe29 	bl	8000cb4 <HAL_GetTick>
 8002062:	f241 3888 	movw	r8, #5000	; 0x1388
 8002066:	4606      	mov	r6, r0
 8002068:	f8d5 3090 	ldr.w	r3, [r5, #144]	; 0x90
 800206c:	079a      	lsls	r2, r3, #30
 800206e:	d5c4      	bpl.n	8001ffa <HAL_RCC_OscConfig+0x202>
 8002070:	f7fe fe20 	bl	8000cb4 <HAL_GetTick>
 8002074:	1b80      	subs	r0, r0, r6
 8002076:	4540      	cmp	r0, r8
 8002078:	d9f6      	bls.n	8002068 <HAL_RCC_OscConfig+0x270>
 800207a:	e701      	b.n	8001e80 <HAL_RCC_OscConfig+0x88>
 800207c:	f7fe fe1a 	bl	8000cb4 <HAL_GetTick>
 8002080:	1b80      	subs	r0, r0, r6
 8002082:	4540      	cmp	r0, r8
 8002084:	d9b5      	bls.n	8001ff2 <HAL_RCC_OscConfig+0x1fa>
 8002086:	e6fb      	b.n	8001e80 <HAL_RCC_OscConfig+0x88>
 8002088:	69a3      	ldr	r3, [r4, #24]
 800208a:	4d0b      	ldr	r5, [pc, #44]	; (80020b8 <HAL_RCC_OscConfig+0x2c0>)
 800208c:	b1d3      	cbz	r3, 80020c4 <HAL_RCC_OscConfig+0x2cc>
 800208e:	f8d5 3098 	ldr.w	r3, [r5, #152]	; 0x98
 8002092:	f043 0301 	orr.w	r3, r3, #1
 8002096:	f8c5 3098 	str.w	r3, [r5, #152]	; 0x98
 800209a:	f7fe fe0b 	bl	8000cb4 <HAL_GetTick>
 800209e:	4606      	mov	r6, r0
 80020a0:	f8d5 3098 	ldr.w	r3, [r5, #152]	; 0x98
 80020a4:	079f      	lsls	r7, r3, #30
 80020a6:	f53f aebd 	bmi.w	8001e24 <HAL_RCC_OscConfig+0x2c>
 80020aa:	f7fe fe03 	bl	8000cb4 <HAL_GetTick>
 80020ae:	1b80      	subs	r0, r0, r6
 80020b0:	2802      	cmp	r0, #2
 80020b2:	d9f5      	bls.n	80020a0 <HAL_RCC_OscConfig+0x2a8>
 80020b4:	e6e4      	b.n	8001e80 <HAL_RCC_OscConfig+0x88>
 80020b6:	bf00      	nop
 80020b8:	40021000 	.word	0x40021000
 80020bc:	20000030 	.word	0x20000030
 80020c0:	40007000 	.word	0x40007000
 80020c4:	f8d5 3098 	ldr.w	r3, [r5, #152]	; 0x98
 80020c8:	f023 0301 	bic.w	r3, r3, #1
 80020cc:	f8c5 3098 	str.w	r3, [r5, #152]	; 0x98
 80020d0:	f7fe fdf0 	bl	8000cb4 <HAL_GetTick>
 80020d4:	4606      	mov	r6, r0
 80020d6:	f8d5 3098 	ldr.w	r3, [r5, #152]	; 0x98
 80020da:	0798      	lsls	r0, r3, #30
 80020dc:	f57f aea2 	bpl.w	8001e24 <HAL_RCC_OscConfig+0x2c>
 80020e0:	f7fe fde8 	bl	8000cb4 <HAL_GetTick>
 80020e4:	1b80      	subs	r0, r0, r6
 80020e6:	2802      	cmp	r0, #2
 80020e8:	d9f5      	bls.n	80020d6 <HAL_RCC_OscConfig+0x2de>
 80020ea:	e6c9      	b.n	8001e80 <HAL_RCC_OscConfig+0x88>
 80020ec:	4d48      	ldr	r5, [pc, #288]	; (8002210 <HAL_RCC_OscConfig+0x418>)
 80020ee:	68ab      	ldr	r3, [r5, #8]
 80020f0:	f003 030c 	and.w	r3, r3, #12
 80020f4:	2b0c      	cmp	r3, #12
 80020f6:	d057      	beq.n	80021a8 <HAL_RCC_OscConfig+0x3b0>
 80020f8:	682b      	ldr	r3, [r5, #0]
 80020fa:	2802      	cmp	r0, #2
 80020fc:	f023 7380 	bic.w	r3, r3, #16777216	; 0x1000000
 8002100:	602b      	str	r3, [r5, #0]
 8002102:	d13a      	bne.n	800217a <HAL_RCC_OscConfig+0x382>
 8002104:	f7fe fdd6 	bl	8000cb4 <HAL_GetTick>
 8002108:	4606      	mov	r6, r0
 800210a:	682b      	ldr	r3, [r5, #0]
 800210c:	0199      	lsls	r1, r3, #6
 800210e:	d42e      	bmi.n	800216e <HAL_RCC_OscConfig+0x376>
 8002110:	68ea      	ldr	r2, [r5, #12]
 8002112:	4b40      	ldr	r3, [pc, #256]	; (8002214 <HAL_RCC_OscConfig+0x41c>)
 8002114:	4013      	ands	r3, r2
 8002116:	6a22      	ldr	r2, [r4, #32]
 8002118:	4313      	orrs	r3, r2
 800211a:	6aa2      	ldr	r2, [r4, #40]	; 0x28
 800211c:	ea43 2302 	orr.w	r3, r3, r2, lsl #8
 8002120:	6ae2      	ldr	r2, [r4, #44]	; 0x2c
 8002122:	ea43 63c2 	orr.w	r3, r3, r2, lsl #27
 8002126:	6a62      	ldr	r2, [r4, #36]	; 0x24
 8002128:	3a01      	subs	r2, #1
 800212a:	ea43 1302 	orr.w	r3, r3, r2, lsl #4
 800212e:	6b22      	ldr	r2, [r4, #48]	; 0x30
 8002130:	0852      	lsrs	r2, r2, #1
 8002132:	3a01      	subs	r2, #1
 8002134:	ea43 5342 	orr.w	r3, r3, r2, lsl #21
 8002138:	6b62      	ldr	r2, [r4, #52]	; 0x34
 800213a:	0852      	lsrs	r2, r2, #1
 800213c:	3a01      	subs	r2, #1
 800213e:	ea43 6342 	orr.w	r3, r3, r2, lsl #25
 8002142:	60eb      	str	r3, [r5, #12]
 8002144:	682b      	ldr	r3, [r5, #0]
 8002146:	f043 7380 	orr.w	r3, r3, #16777216	; 0x1000000
 800214a:	602b      	str	r3, [r5, #0]
 800214c:	68eb      	ldr	r3, [r5, #12]
 800214e:	f043 7380 	orr.w	r3, r3, #16777216	; 0x1000000
 8002152:	60eb      	str	r3, [r5, #12]
 8002154:	f7fe fdae 	bl	8000cb4 <HAL_GetTick>
 8002158:	4604      	mov	r4, r0
 800215a:	682b      	ldr	r3, [r5, #0]
 800215c:	019a      	lsls	r2, r3, #6
 800215e:	f53f ae65 	bmi.w	8001e2c <HAL_RCC_OscConfig+0x34>
 8002162:	f7fe fda7 	bl	8000cb4 <HAL_GetTick>
 8002166:	1b00      	subs	r0, r0, r4
 8002168:	2802      	cmp	r0, #2
 800216a:	d9f6      	bls.n	800215a <HAL_RCC_OscConfig+0x362>
 800216c:	e688      	b.n	8001e80 <HAL_RCC_OscConfig+0x88>
 800216e:	f7fe fda1 	bl	8000cb4 <HAL_GetTick>
 8002172:	1b80      	subs	r0, r0, r6
 8002174:	2802      	cmp	r0, #2
 8002176:	d9c8      	bls.n	800210a <HAL_RCC_OscConfig+0x312>
 8002178:	e682      	b.n	8001e80 <HAL_RCC_OscConfig+0x88>
 800217a:	68eb      	ldr	r3, [r5, #12]
 800217c:	f023 0303 	bic.w	r3, r3, #3
 8002180:	60eb      	str	r3, [r5, #12]
 8002182:	68eb      	ldr	r3, [r5, #12]
 8002184:	f023 7388 	bic.w	r3, r3, #17825792	; 0x1100000
 8002188:	f423 3380 	bic.w	r3, r3, #65536	; 0x10000
 800218c:	60eb      	str	r3, [r5, #12]
 800218e:	f7fe fd91 	bl	8000cb4 <HAL_GetTick>
 8002192:	4604      	mov	r4, r0
 8002194:	682b      	ldr	r3, [r5, #0]
 8002196:	019b      	lsls	r3, r3, #6
 8002198:	f57f ae48 	bpl.w	8001e2c <HAL_RCC_OscConfig+0x34>
 800219c:	f7fe fd8a 	bl	8000cb4 <HAL_GetTick>
 80021a0:	1b00      	subs	r0, r0, r4
 80021a2:	2802      	cmp	r0, #2
 80021a4:	d9f6      	bls.n	8002194 <HAL_RCC_OscConfig+0x39c>
 80021a6:	e66b      	b.n	8001e80 <HAL_RCC_OscConfig+0x88>
 80021a8:	2801      	cmp	r0, #1
 80021aa:	f43f ae6a 	beq.w	8001e82 <HAL_RCC_OscConfig+0x8a>
 80021ae:	68eb      	ldr	r3, [r5, #12]
 80021b0:	6a22      	ldr	r2, [r4, #32]
 80021b2:	f003 0103 	and.w	r1, r3, #3
 80021b6:	4291      	cmp	r1, r2
 80021b8:	f47f ae4b 	bne.w	8001e52 <HAL_RCC_OscConfig+0x5a>
 80021bc:	6a61      	ldr	r1, [r4, #36]	; 0x24
 80021be:	f003 02f0 	and.w	r2, r3, #240	; 0xf0
 80021c2:	3901      	subs	r1, #1
 80021c4:	ebb2 1f01 	cmp.w	r2, r1, lsl #4
 80021c8:	f47f ae43 	bne.w	8001e52 <HAL_RCC_OscConfig+0x5a>
 80021cc:	6aa1      	ldr	r1, [r4, #40]	; 0x28
 80021ce:	f403 42fe 	and.w	r2, r3, #32512	; 0x7f00
 80021d2:	ebb2 2f01 	cmp.w	r2, r1, lsl #8
 80021d6:	f47f ae3c 	bne.w	8001e52 <HAL_RCC_OscConfig+0x5a>
 80021da:	6ae1      	ldr	r1, [r4, #44]	; 0x2c
 80021dc:	f003 4278 	and.w	r2, r3, #4160749568	; 0xf8000000
 80021e0:	ebb2 6fc1 	cmp.w	r2, r1, lsl #27
 80021e4:	f47f ae35 	bne.w	8001e52 <HAL_RCC_OscConfig+0x5a>
 80021e8:	6b22      	ldr	r2, [r4, #48]	; 0x30
 80021ea:	0852      	lsrs	r2, r2, #1
 80021ec:	f403 01c0 	and.w	r1, r3, #6291456	; 0x600000
 80021f0:	3a01      	subs	r2, #1
 80021f2:	ebb1 5f42 	cmp.w	r1, r2, lsl #21
 80021f6:	f47f ae2c 	bne.w	8001e52 <HAL_RCC_OscConfig+0x5a>
 80021fa:	6b62      	ldr	r2, [r4, #52]	; 0x34
 80021fc:	0852      	lsrs	r2, r2, #1
 80021fe:	f003 63c0 	and.w	r3, r3, #100663296	; 0x6000000
 8002202:	3a01      	subs	r2, #1
 8002204:	ebb3 6f42 	cmp.w	r3, r2, lsl #25
 8002208:	f43f ae10 	beq.w	8001e2c <HAL_RCC_OscConfig+0x34>
 800220c:	e621      	b.n	8001e52 <HAL_RCC_OscConfig+0x5a>
 800220e:	bf00      	nop
 8002210:	40021000 	.word	0x40021000
 8002214:	019f800c 	.word	0x019f800c

08002218 <HAL_RCC_GetSysClockFreq>:
 8002218:	4b17      	ldr	r3, [pc, #92]	; (8002278 <HAL_RCC_GetSysClockFreq+0x60>)
 800221a:	689a      	ldr	r2, [r3, #8]
 800221c:	f002 020c 	and.w	r2, r2, #12
 8002220:	2a04      	cmp	r2, #4
 8002222:	d023      	beq.n	800226c <HAL_RCC_GetSysClockFreq+0x54>
 8002224:	689a      	ldr	r2, [r3, #8]
 8002226:	f002 020c 	and.w	r2, r2, #12
 800222a:	2a08      	cmp	r2, #8
 800222c:	d020      	beq.n	8002270 <HAL_RCC_GetSysClockFreq+0x58>
 800222e:	689a      	ldr	r2, [r3, #8]
 8002230:	f002 020c 	and.w	r2, r2, #12
 8002234:	2a0c      	cmp	r2, #12
 8002236:	d11d      	bne.n	8002274 <HAL_RCC_GetSysClockFreq+0x5c>
 8002238:	68d9      	ldr	r1, [r3, #12]
 800223a:	68da      	ldr	r2, [r3, #12]
 800223c:	68d8      	ldr	r0, [r3, #12]
 800223e:	68db      	ldr	r3, [r3, #12]
 8002240:	f001 0103 	and.w	r1, r1, #3
 8002244:	f3c3 6341 	ubfx	r3, r3, #25, #2
 8002248:	2903      	cmp	r1, #3
 800224a:	f3c2 1203 	ubfx	r2, r2, #4, #4
 800224e:	f3c0 2006 	ubfx	r0, r0, #8, #7
 8002252:	f103 0301 	add.w	r3, r3, #1
 8002256:	bf0c      	ite	eq
 8002258:	4908      	ldreq	r1, [pc, #32]	; (800227c <HAL_RCC_GetSysClockFreq+0x64>)
 800225a:	4909      	ldrne	r1, [pc, #36]	; (8002280 <HAL_RCC_GetSysClockFreq+0x68>)
 800225c:	005b      	lsls	r3, r3, #1
 800225e:	3201      	adds	r2, #1
 8002260:	fbb1 f2f2 	udiv	r2, r1, r2
 8002264:	4350      	muls	r0, r2
 8002266:	fbb0 f0f3 	udiv	r0, r0, r3
 800226a:	4770      	bx	lr
 800226c:	4804      	ldr	r0, [pc, #16]	; (8002280 <HAL_RCC_GetSysClockFreq+0x68>)
 800226e:	4770      	bx	lr
 8002270:	4802      	ldr	r0, [pc, #8]	; (800227c <HAL_RCC_GetSysClockFreq+0x64>)
 8002272:	4770      	bx	lr
 8002274:	2000      	movs	r0, #0
 8002276:	4770      	bx	lr
 8002278:	40021000 	.word	0x40021000
 800227c:	007a1200 	.word	0x007a1200
 8002280:	00f42400 	.word	0x00f42400

08002284 <HAL_RCC_ClockConfig>:
 8002284:	e92d 43f8 	stmdb	sp!, {r3, r4, r5, r6, r7, r8, r9, lr}
 8002288:	460e      	mov	r6, r1
 800228a:	4605      	mov	r5, r0
 800228c:	b910      	cbnz	r0, 8002294 <HAL_RCC_ClockConfig+0x10>
 800228e:	2001      	movs	r0, #1
 8002290:	e8bd 83f8 	ldmia.w	sp!, {r3, r4, r5, r6, r7, r8, r9, pc}
 8002294:	4a6d      	ldr	r2, [pc, #436]	; (800244c <HAL_RCC_ClockConfig+0x1c8>)
 8002296:	6813      	ldr	r3, [r2, #0]
 8002298:	f003 030f 	and.w	r3, r3, #15
 800229c:	428b      	cmp	r3, r1
 800229e:	d345      	bcc.n	800232c <HAL_RCC_ClockConfig+0xa8>
 80022a0:	6829      	ldr	r1, [r5, #0]
 80022a2:	f011 0701 	ands.w	r7, r1, #1
 80022a6:	d14c      	bne.n	8002342 <HAL_RCC_ClockConfig+0xbe>
 80022a8:	682a      	ldr	r2, [r5, #0]
 80022aa:	0791      	lsls	r1, r2, #30
 80022ac:	f140 80a8 	bpl.w	8002400 <HAL_RCC_ClockConfig+0x17c>
 80022b0:	4b67      	ldr	r3, [pc, #412]	; (8002450 <HAL_RCC_ClockConfig+0x1cc>)
 80022b2:	f012 0f04 	tst.w	r2, #4
 80022b6:	bf1e      	ittt	ne
 80022b8:	6899      	ldrne	r1, [r3, #8]
 80022ba:	f441 61e0 	orrne.w	r1, r1, #1792	; 0x700
 80022be:	6099      	strne	r1, [r3, #8]
 80022c0:	0712      	lsls	r2, r2, #28
 80022c2:	bf41      	itttt	mi
 80022c4:	689a      	ldrmi	r2, [r3, #8]
 80022c6:	f422 527c 	bicmi.w	r2, r2, #16128	; 0x3f00
 80022ca:	f442 62e0 	orrmi.w	r2, r2, #1792	; 0x700
 80022ce:	609a      	strmi	r2, [r3, #8]
 80022d0:	689a      	ldr	r2, [r3, #8]
 80022d2:	68a9      	ldr	r1, [r5, #8]
 80022d4:	f022 02f0 	bic.w	r2, r2, #240	; 0xf0
 80022d8:	430a      	orrs	r2, r1
 80022da:	609a      	str	r2, [r3, #8]
 80022dc:	4c5b      	ldr	r4, [pc, #364]	; (800244c <HAL_RCC_ClockConfig+0x1c8>)
 80022de:	6823      	ldr	r3, [r4, #0]
 80022e0:	f003 030f 	and.w	r3, r3, #15
 80022e4:	42b3      	cmp	r3, r6
 80022e6:	f200 8093 	bhi.w	8002410 <HAL_RCC_ClockConfig+0x18c>
 80022ea:	682a      	ldr	r2, [r5, #0]
 80022ec:	4c58      	ldr	r4, [pc, #352]	; (8002450 <HAL_RCC_ClockConfig+0x1cc>)
 80022ee:	f012 0f04 	tst.w	r2, #4
 80022f2:	f040 80a3 	bne.w	800243c <HAL_RCC_ClockConfig+0x1b8>
 80022f6:	0713      	lsls	r3, r2, #28
 80022f8:	d506      	bpl.n	8002308 <HAL_RCC_ClockConfig+0x84>
 80022fa:	68a3      	ldr	r3, [r4, #8]
 80022fc:	692a      	ldr	r2, [r5, #16]
 80022fe:	f423 5360 	bic.w	r3, r3, #14336	; 0x3800
 8002302:	ea43 03c2 	orr.w	r3, r3, r2, lsl #3
 8002306:	60a3      	str	r3, [r4, #8]
 8002308:	f7ff ff86 	bl	8002218 <HAL_RCC_GetSysClockFreq>
 800230c:	68a3      	ldr	r3, [r4, #8]
 800230e:	4a51      	ldr	r2, [pc, #324]	; (8002454 <HAL_RCC_ClockConfig+0x1d0>)
 8002310:	f3c3 1303 	ubfx	r3, r3, #4, #4
 8002314:	5cd3      	ldrb	r3, [r2, r3]
 8002316:	f003 031f 	and.w	r3, r3, #31
 800231a:	40d8      	lsrs	r0, r3
 800231c:	4b4e      	ldr	r3, [pc, #312]	; (8002458 <HAL_RCC_ClockConfig+0x1d4>)
 800231e:	6018      	str	r0, [r3, #0]
 8002320:	4b4e      	ldr	r3, [pc, #312]	; (800245c <HAL_RCC_ClockConfig+0x1d8>)
 8002322:	6818      	ldr	r0, [r3, #0]
 8002324:	e8bd 43f8 	ldmia.w	sp!, {r3, r4, r5, r6, r7, r8, r9, lr}
 8002328:	f7fe bc82 	b.w	8000c30 <HAL_InitTick>
 800232c:	6813      	ldr	r3, [r2, #0]
 800232e:	f023 030f 	bic.w	r3, r3, #15
 8002332:	430b      	orrs	r3, r1
 8002334:	6013      	str	r3, [r2, #0]
 8002336:	6813      	ldr	r3, [r2, #0]
 8002338:	f003 030f 	and.w	r3, r3, #15
 800233c:	428b      	cmp	r3, r1
 800233e:	d1a6      	bne.n	800228e <HAL_RCC_ClockConfig+0xa>
 8002340:	e7ae      	b.n	80022a0 <HAL_RCC_ClockConfig+0x1c>
 8002342:	686b      	ldr	r3, [r5, #4]
 8002344:	4c42      	ldr	r4, [pc, #264]	; (8002450 <HAL_RCC_ClockConfig+0x1cc>)
 8002346:	2b03      	cmp	r3, #3
 8002348:	d14a      	bne.n	80023e0 <HAL_RCC_ClockConfig+0x15c>
 800234a:	6823      	ldr	r3, [r4, #0]
 800234c:	019f      	lsls	r7, r3, #6
 800234e:	d59e      	bpl.n	800228e <HAL_RCC_ClockConfig+0xa>
 8002350:	68e3      	ldr	r3, [r4, #12]
 8002352:	68e2      	ldr	r2, [r4, #12]
 8002354:	f003 0303 	and.w	r3, r3, #3
 8002358:	2b03      	cmp	r3, #3
 800235a:	68e3      	ldr	r3, [r4, #12]
 800235c:	bf0c      	ite	eq
 800235e:	4840      	ldreq	r0, [pc, #256]	; (8002460 <HAL_RCC_ClockConfig+0x1dc>)
 8002360:	4840      	ldrne	r0, [pc, #256]	; (8002464 <HAL_RCC_ClockConfig+0x1e0>)
 8002362:	f3c2 1203 	ubfx	r2, r2, #4, #4
 8002366:	f3c3 2306 	ubfx	r3, r3, #8, #7
 800236a:	3201      	adds	r2, #1
 800236c:	fbb0 f2f2 	udiv	r2, r0, r2
 8002370:	4353      	muls	r3, r2
 8002372:	68e2      	ldr	r2, [r4, #12]
 8002374:	f3c2 6241 	ubfx	r2, r2, #25, #2
 8002378:	3201      	adds	r2, #1
 800237a:	0052      	lsls	r2, r2, #1
 800237c:	fbb3 f3f2 	udiv	r3, r3, r2
 8002380:	4a39      	ldr	r2, [pc, #228]	; (8002468 <HAL_RCC_ClockConfig+0x1e4>)
 8002382:	4293      	cmp	r3, r2
 8002384:	d81b      	bhi.n	80023be <HAL_RCC_ClockConfig+0x13a>
 8002386:	2700      	movs	r7, #0
 8002388:	68a3      	ldr	r3, [r4, #8]
 800238a:	686a      	ldr	r2, [r5, #4]
 800238c:	f023 0303 	bic.w	r3, r3, #3
 8002390:	4313      	orrs	r3, r2
 8002392:	60a3      	str	r3, [r4, #8]
 8002394:	f7fe fc8e 	bl	8000cb4 <HAL_GetTick>
 8002398:	f241 3988 	movw	r9, #5000	; 0x1388
 800239c:	4680      	mov	r8, r0
 800239e:	68a3      	ldr	r3, [r4, #8]
 80023a0:	686a      	ldr	r2, [r5, #4]
 80023a2:	f003 030c 	and.w	r3, r3, #12
 80023a6:	ebb3 0f82 	cmp.w	r3, r2, lsl #2
 80023aa:	f43f af7d 	beq.w	80022a8 <HAL_RCC_ClockConfig+0x24>
 80023ae:	f7fe fc81 	bl	8000cb4 <HAL_GetTick>
 80023b2:	eba0 0008 	sub.w	r0, r0, r8
 80023b6:	4548      	cmp	r0, r9
 80023b8:	d9f1      	bls.n	800239e <HAL_RCC_ClockConfig+0x11a>
 80023ba:	2003      	movs	r0, #3
 80023bc:	e768      	b.n	8002290 <HAL_RCC_ClockConfig+0xc>
 80023be:	68a3      	ldr	r3, [r4, #8]
 80023c0:	f013 0ff0 	tst.w	r3, #240	; 0xf0
 80023c4:	d004      	beq.n	80023d0 <HAL_RCC_ClockConfig+0x14c>
 80023c6:	0788      	lsls	r0, r1, #30
 80023c8:	d5dd      	bpl.n	8002386 <HAL_RCC_ClockConfig+0x102>
 80023ca:	68ab      	ldr	r3, [r5, #8]
 80023cc:	2b00      	cmp	r3, #0
 80023ce:	d1da      	bne.n	8002386 <HAL_RCC_ClockConfig+0x102>
 80023d0:	68a3      	ldr	r3, [r4, #8]
 80023d2:	f023 03f0 	bic.w	r3, r3, #240	; 0xf0
 80023d6:	f043 0380 	orr.w	r3, r3, #128	; 0x80
 80023da:	60a3      	str	r3, [r4, #8]
 80023dc:	2780      	movs	r7, #128	; 0x80
 80023de:	e7d3      	b.n	8002388 <HAL_RCC_ClockConfig+0x104>
 80023e0:	2b02      	cmp	r3, #2
 80023e2:	6823      	ldr	r3, [r4, #0]
 80023e4:	d109      	bne.n	80023fa <HAL_RCC_ClockConfig+0x176>
 80023e6:	f413 3f00 	tst.w	r3, #131072	; 0x20000
 80023ea:	f43f af50 	beq.w	800228e <HAL_RCC_ClockConfig+0xa>
 80023ee:	f7ff ff13 	bl	8002218 <HAL_RCC_GetSysClockFreq>
 80023f2:	4b1d      	ldr	r3, [pc, #116]	; (8002468 <HAL_RCC_ClockConfig+0x1e4>)
 80023f4:	4298      	cmp	r0, r3
 80023f6:	d9c6      	bls.n	8002386 <HAL_RCC_ClockConfig+0x102>
 80023f8:	e7ea      	b.n	80023d0 <HAL_RCC_ClockConfig+0x14c>
 80023fa:	f413 6f80 	tst.w	r3, #1024	; 0x400
 80023fe:	e7f4      	b.n	80023ea <HAL_RCC_ClockConfig+0x166>
 8002400:	2f80      	cmp	r7, #128	; 0x80
 8002402:	bf01      	itttt	eq
 8002404:	4a12      	ldreq	r2, [pc, #72]	; (8002450 <HAL_RCC_ClockConfig+0x1cc>)
 8002406:	6893      	ldreq	r3, [r2, #8]
 8002408:	f023 03f0 	biceq.w	r3, r3, #240	; 0xf0
 800240c:	6093      	streq	r3, [r2, #8]
 800240e:	e765      	b.n	80022dc <HAL_RCC_ClockConfig+0x58>
 8002410:	6823      	ldr	r3, [r4, #0]
 8002412:	f023 030f 	bic.w	r3, r3, #15
 8002416:	4333      	orrs	r3, r6
 8002418:	6023      	str	r3, [r4, #0]
 800241a:	f7fe fc4b 	bl	8000cb4 <HAL_GetTick>
 800241e:	f241 3888 	movw	r8, #5000	; 0x1388
 8002422:	4607      	mov	r7, r0
 8002424:	6823      	ldr	r3, [r4, #0]
 8002426:	f003 030f 	and.w	r3, r3, #15
 800242a:	42b3      	cmp	r3, r6
 800242c:	f43f af5d 	beq.w	80022ea <HAL_RCC_ClockConfig+0x66>
 8002430:	f7fe fc40 	bl	8000cb4 <HAL_GetTick>
 8002434:	1bc0      	subs	r0, r0, r7
 8002436:	4540      	cmp	r0, r8
 8002438:	d9f4      	bls.n	8002424 <HAL_RCC_ClockConfig+0x1a0>
 800243a:	e7be      	b.n	80023ba <HAL_RCC_ClockConfig+0x136>
 800243c:	68a3      	ldr	r3, [r4, #8]
 800243e:	68e9      	ldr	r1, [r5, #12]
 8002440:	f423 63e0 	bic.w	r3, r3, #1792	; 0x700
 8002444:	430b      	orrs	r3, r1
 8002446:	60a3      	str	r3, [r4, #8]
 8002448:	e755      	b.n	80022f6 <HAL_RCC_ClockConfig+0x72>
 800244a:	bf00      	nop
 800244c:	40022000 	.word	0x40022000
 8002450:	40021000 	.word	0x40021000
 8002454:	08004f8c 	.word	0x08004f8c
 8002458:	20000028 	.word	0x20000028
 800245c:	20000030 	.word	0x20000030
 8002460:	007a1200 	.word	0x007a1200
 8002464:	00f42400 	.word	0x00f42400
 8002468:	04c4b400 	.word	0x04c4b400

0800246c <HAL_RCCEx_PeriphCLKConfig>:
 800246c:	e92d 41f3 	stmdb	sp!, {r0, r1, r4, r5, r6, r7, r8, lr}
 8002470:	4604      	mov	r4, r0
 8002472:	6800      	ldr	r0, [r0, #0]
 8002474:	f410 2000 	ands.w	r0, r0, #524288	; 0x80000
 8002478:	d039      	beq.n	80024ee <HAL_RCCEx_PeriphCLKConfig+0x82>
 800247a:	4d99      	ldr	r5, [pc, #612]	; (80026e0 <HAL_RCCEx_PeriphCLKConfig+0x274>)
 800247c:	6dab      	ldr	r3, [r5, #88]	; 0x58
 800247e:	00d8      	lsls	r0, r3, #3
 8002480:	d427      	bmi.n	80024d2 <HAL_RCCEx_PeriphCLKConfig+0x66>
 8002482:	6dab      	ldr	r3, [r5, #88]	; 0x58
 8002484:	f043 5380 	orr.w	r3, r3, #268435456	; 0x10000000
 8002488:	65ab      	str	r3, [r5, #88]	; 0x58
 800248a:	6dab      	ldr	r3, [r5, #88]	; 0x58
 800248c:	f003 5380 	and.w	r3, r3, #268435456	; 0x10000000
 8002490:	9301      	str	r3, [sp, #4]
 8002492:	9b01      	ldr	r3, [sp, #4]
 8002494:	2601      	movs	r6, #1
 8002496:	4f93      	ldr	r7, [pc, #588]	; (80026e4 <HAL_RCCEx_PeriphCLKConfig+0x278>)
 8002498:	683b      	ldr	r3, [r7, #0]
 800249a:	f443 7380 	orr.w	r3, r3, #256	; 0x100
 800249e:	603b      	str	r3, [r7, #0]
 80024a0:	f7fe fc08 	bl	8000cb4 <HAL_GetTick>
 80024a4:	4680      	mov	r8, r0
 80024a6:	683b      	ldr	r3, [r7, #0]
 80024a8:	05d9      	lsls	r1, r3, #23
 80024aa:	d514      	bpl.n	80024d6 <HAL_RCCEx_PeriphCLKConfig+0x6a>
 80024ac:	f8d5 3090 	ldr.w	r3, [r5, #144]	; 0x90
 80024b0:	f413 7340 	ands.w	r3, r3, #768	; 0x300
 80024b4:	d003      	beq.n	80024be <HAL_RCCEx_PeriphCLKConfig+0x52>
 80024b6:	6c22      	ldr	r2, [r4, #64]	; 0x40
 80024b8:	4293      	cmp	r3, r2
 80024ba:	f040 80eb 	bne.w	8002694 <HAL_RCCEx_PeriphCLKConfig+0x228>
 80024be:	f8d5 3090 	ldr.w	r3, [r5, #144]	; 0x90
 80024c2:	6c22      	ldr	r2, [r4, #64]	; 0x40
 80024c4:	f423 7340 	bic.w	r3, r3, #768	; 0x300
 80024c8:	4313      	orrs	r3, r2
 80024ca:	f8c5 3090 	str.w	r3, [r5, #144]	; 0x90
 80024ce:	2000      	movs	r0, #0
 80024d0:	e008      	b.n	80024e4 <HAL_RCCEx_PeriphCLKConfig+0x78>
 80024d2:	2600      	movs	r6, #0
 80024d4:	e7df      	b.n	8002496 <HAL_RCCEx_PeriphCLKConfig+0x2a>
 80024d6:	f7fe fbed 	bl	8000cb4 <HAL_GetTick>
 80024da:	eba0 0008 	sub.w	r0, r0, r8
 80024de:	2802      	cmp	r0, #2
 80024e0:	d9e1      	bls.n	80024a6 <HAL_RCCEx_PeriphCLKConfig+0x3a>
 80024e2:	2003      	movs	r0, #3
 80024e4:	b11e      	cbz	r6, 80024ee <HAL_RCCEx_PeriphCLKConfig+0x82>
 80024e6:	6dab      	ldr	r3, [r5, #88]	; 0x58
 80024e8:	f023 5380 	bic.w	r3, r3, #268435456	; 0x10000000
 80024ec:	65ab      	str	r3, [r5, #88]	; 0x58
 80024ee:	6823      	ldr	r3, [r4, #0]
 80024f0:	07de      	lsls	r6, r3, #31
 80024f2:	d508      	bpl.n	8002506 <HAL_RCCEx_PeriphCLKConfig+0x9a>
 80024f4:	497a      	ldr	r1, [pc, #488]	; (80026e0 <HAL_RCCEx_PeriphCLKConfig+0x274>)
 80024f6:	6865      	ldr	r5, [r4, #4]
 80024f8:	f8d1 2088 	ldr.w	r2, [r1, #136]	; 0x88
 80024fc:	f022 0203 	bic.w	r2, r2, #3
 8002500:	432a      	orrs	r2, r5
 8002502:	f8c1 2088 	str.w	r2, [r1, #136]	; 0x88
 8002506:	079d      	lsls	r5, r3, #30
 8002508:	d508      	bpl.n	800251c <HAL_RCCEx_PeriphCLKConfig+0xb0>
 800250a:	4975      	ldr	r1, [pc, #468]	; (80026e0 <HAL_RCCEx_PeriphCLKConfig+0x274>)
 800250c:	68a5      	ldr	r5, [r4, #8]
 800250e:	f8d1 2088 	ldr.w	r2, [r1, #136]	; 0x88
 8002512:	f022 020c 	bic.w	r2, r2, #12
 8002516:	432a      	orrs	r2, r5
 8002518:	f8c1 2088 	str.w	r2, [r1, #136]	; 0x88
 800251c:	0759      	lsls	r1, r3, #29
 800251e:	d508      	bpl.n	8002532 <HAL_RCCEx_PeriphCLKConfig+0xc6>
 8002520:	496f      	ldr	r1, [pc, #444]	; (80026e0 <HAL_RCCEx_PeriphCLKConfig+0x274>)
 8002522:	68e5      	ldr	r5, [r4, #12]
 8002524:	f8d1 2088 	ldr.w	r2, [r1, #136]	; 0x88
 8002528:	f022 0230 	bic.w	r2, r2, #48	; 0x30
 800252c:	432a      	orrs	r2, r5
 800252e:	f8c1 2088 	str.w	r2, [r1, #136]	; 0x88
 8002532:	071a      	lsls	r2, r3, #28
 8002534:	d508      	bpl.n	8002548 <HAL_RCCEx_PeriphCLKConfig+0xdc>
 8002536:	496a      	ldr	r1, [pc, #424]	; (80026e0 <HAL_RCCEx_PeriphCLKConfig+0x274>)
 8002538:	6925      	ldr	r5, [r4, #16]
 800253a:	f8d1 2088 	ldr.w	r2, [r1, #136]	; 0x88
 800253e:	f022 02c0 	bic.w	r2, r2, #192	; 0xc0
 8002542:	432a      	orrs	r2, r5
 8002544:	f8c1 2088 	str.w	r2, [r1, #136]	; 0x88
 8002548:	069f      	lsls	r7, r3, #26
 800254a:	d508      	bpl.n	800255e <HAL_RCCEx_PeriphCLKConfig+0xf2>
 800254c:	4964      	ldr	r1, [pc, #400]	; (80026e0 <HAL_RCCEx_PeriphCLKConfig+0x274>)
 800254e:	6965      	ldr	r5, [r4, #20]
 8002550:	f8d1 2088 	ldr.w	r2, [r1, #136]	; 0x88
 8002554:	f422 6240 	bic.w	r2, r2, #3072	; 0xc00
 8002558:	432a      	orrs	r2, r5
 800255a:	f8c1 2088 	str.w	r2, [r1, #136]	; 0x88
 800255e:	065e      	lsls	r6, r3, #25
 8002560:	d508      	bpl.n	8002574 <HAL_RCCEx_PeriphCLKConfig+0x108>
 8002562:	495f      	ldr	r1, [pc, #380]	; (80026e0 <HAL_RCCEx_PeriphCLKConfig+0x274>)
 8002564:	69a5      	ldr	r5, [r4, #24]
 8002566:	f8d1 2088 	ldr.w	r2, [r1, #136]	; 0x88
 800256a:	f422 5240 	bic.w	r2, r2, #12288	; 0x3000
 800256e:	432a      	orrs	r2, r5
 8002570:	f8c1 2088 	str.w	r2, [r1, #136]	; 0x88
 8002574:	061d      	lsls	r5, r3, #24
 8002576:	d508      	bpl.n	800258a <HAL_RCCEx_PeriphCLKConfig+0x11e>
 8002578:	4959      	ldr	r1, [pc, #356]	; (80026e0 <HAL_RCCEx_PeriphCLKConfig+0x274>)
 800257a:	69e5      	ldr	r5, [r4, #28]
 800257c:	f8d1 2088 	ldr.w	r2, [r1, #136]	; 0x88
 8002580:	f422 4240 	bic.w	r2, r2, #49152	; 0xc000
 8002584:	432a      	orrs	r2, r5
 8002586:	f8c1 2088 	str.w	r2, [r1, #136]	; 0x88
 800258a:	05d9      	lsls	r1, r3, #23
 800258c:	d508      	bpl.n	80025a0 <HAL_RCCEx_PeriphCLKConfig+0x134>
 800258e:	4954      	ldr	r1, [pc, #336]	; (80026e0 <HAL_RCCEx_PeriphCLKConfig+0x274>)
 8002590:	6a25      	ldr	r5, [r4, #32]
 8002592:	f8d1 2088 	ldr.w	r2, [r1, #136]	; 0x88
 8002596:	f422 3240 	bic.w	r2, r2, #196608	; 0x30000
 800259a:	432a      	orrs	r2, r5
 800259c:	f8c1 2088 	str.w	r2, [r1, #136]	; 0x88
 80025a0:	059a      	lsls	r2, r3, #22
 80025a2:	d508      	bpl.n	80025b6 <HAL_RCCEx_PeriphCLKConfig+0x14a>
 80025a4:	494e      	ldr	r1, [pc, #312]	; (80026e0 <HAL_RCCEx_PeriphCLKConfig+0x274>)
 80025a6:	6a65      	ldr	r5, [r4, #36]	; 0x24
 80025a8:	f8d1 2088 	ldr.w	r2, [r1, #136]	; 0x88
 80025ac:	f422 2240 	bic.w	r2, r2, #786432	; 0xc0000
 80025b0:	432a      	orrs	r2, r5
 80025b2:	f8c1 2088 	str.w	r2, [r1, #136]	; 0x88
 80025b6:	055f      	lsls	r7, r3, #21
 80025b8:	d50f      	bpl.n	80025da <HAL_RCCEx_PeriphCLKConfig+0x16e>
 80025ba:	4949      	ldr	r1, [pc, #292]	; (80026e0 <HAL_RCCEx_PeriphCLKConfig+0x274>)
 80025bc:	6aa5      	ldr	r5, [r4, #40]	; 0x28
 80025be:	f8d1 2088 	ldr.w	r2, [r1, #136]	; 0x88
 80025c2:	f422 1240 	bic.w	r2, r2, #3145728	; 0x300000
 80025c6:	432a      	orrs	r2, r5
 80025c8:	f8c1 2088 	str.w	r2, [r1, #136]	; 0x88
 80025cc:	f5b5 1f80 	cmp.w	r5, #1048576	; 0x100000
 80025d0:	bf02      	ittt	eq
 80025d2:	68ca      	ldreq	r2, [r1, #12]
 80025d4:	f442 1280 	orreq.w	r2, r2, #1048576	; 0x100000
 80025d8:	60ca      	streq	r2, [r1, #12]
 80025da:	051e      	lsls	r6, r3, #20
 80025dc:	d50f      	bpl.n	80025fe <HAL_RCCEx_PeriphCLKConfig+0x192>
 80025de:	4940      	ldr	r1, [pc, #256]	; (80026e0 <HAL_RCCEx_PeriphCLKConfig+0x274>)
 80025e0:	6ae5      	ldr	r5, [r4, #44]	; 0x2c
 80025e2:	f8d1 2088 	ldr.w	r2, [r1, #136]	; 0x88
 80025e6:	f422 0240 	bic.w	r2, r2, #12582912	; 0xc00000
 80025ea:	432a      	orrs	r2, r5
 80025ec:	f8c1 2088 	str.w	r2, [r1, #136]	; 0x88
 80025f0:	f5b5 0f80 	cmp.w	r5, #4194304	; 0x400000
 80025f4:	bf02      	ittt	eq
 80025f6:	68ca      	ldreq	r2, [r1, #12]
 80025f8:	f442 1280 	orreq.w	r2, r2, #1048576	; 0x100000
 80025fc:	60ca      	streq	r2, [r1, #12]
 80025fe:	04dd      	lsls	r5, r3, #19
 8002600:	d50f      	bpl.n	8002622 <HAL_RCCEx_PeriphCLKConfig+0x1b6>
 8002602:	4937      	ldr	r1, [pc, #220]	; (80026e0 <HAL_RCCEx_PeriphCLKConfig+0x274>)
 8002604:	6b25      	ldr	r5, [r4, #48]	; 0x30
 8002606:	f8d1 2088 	ldr.w	r2, [r1, #136]	; 0x88
 800260a:	f022 7240 	bic.w	r2, r2, #50331648	; 0x3000000
 800260e:	432a      	orrs	r2, r5
 8002610:	f8c1 2088 	str.w	r2, [r1, #136]	; 0x88
 8002614:	f1b5 7f80 	cmp.w	r5, #16777216	; 0x1000000
 8002618:	bf02      	ittt	eq
 800261a:	68ca      	ldreq	r2, [r1, #12]
 800261c:	f442 1280 	orreq.w	r2, r2, #1048576	; 0x100000
 8002620:	60ca      	streq	r2, [r1, #12]
 8002622:	0499      	lsls	r1, r3, #18
 8002624:	d50f      	bpl.n	8002646 <HAL_RCCEx_PeriphCLKConfig+0x1da>
 8002626:	492e      	ldr	r1, [pc, #184]	; (80026e0 <HAL_RCCEx_PeriphCLKConfig+0x274>)
 8002628:	6b65      	ldr	r5, [r4, #52]	; 0x34
 800262a:	f8d1 2088 	ldr.w	r2, [r1, #136]	; 0x88
 800262e:	f022 6240 	bic.w	r2, r2, #201326592	; 0xc000000
 8002632:	432a      	orrs	r2, r5
 8002634:	f8c1 2088 	str.w	r2, [r1, #136]	; 0x88
 8002638:	f1b5 6f00 	cmp.w	r5, #134217728	; 0x8000000
 800263c:	bf02      	ittt	eq
 800263e:	68ca      	ldreq	r2, [r1, #12]
 8002640:	f442 1280 	orreq.w	r2, r2, #1048576	; 0x100000
 8002644:	60ca      	streq	r2, [r1, #12]
 8002646:	045a      	lsls	r2, r3, #17
 8002648:	d50f      	bpl.n	800266a <HAL_RCCEx_PeriphCLKConfig+0x1fe>
 800264a:	4925      	ldr	r1, [pc, #148]	; (80026e0 <HAL_RCCEx_PeriphCLKConfig+0x274>)
 800264c:	6ba5      	ldr	r5, [r4, #56]	; 0x38
 800264e:	f8d1 2088 	ldr.w	r2, [r1, #136]	; 0x88
 8002652:	f022 6240 	bic.w	r2, r2, #201326592	; 0xc000000
 8002656:	432a      	orrs	r2, r5
 8002658:	f8c1 2088 	str.w	r2, [r1, #136]	; 0x88
 800265c:	f1b5 6f00 	cmp.w	r5, #134217728	; 0x8000000
 8002660:	bf02      	ittt	eq
 8002662:	68ca      	ldreq	r2, [r1, #12]
 8002664:	f442 1280 	orreq.w	r2, r2, #1048576	; 0x100000
 8002668:	60ca      	streq	r2, [r1, #12]
 800266a:	041b      	lsls	r3, r3, #16
 800266c:	d50f      	bpl.n	800268e <HAL_RCCEx_PeriphCLKConfig+0x222>
 800266e:	4a1c      	ldr	r2, [pc, #112]	; (80026e0 <HAL_RCCEx_PeriphCLKConfig+0x274>)
 8002670:	6be1      	ldr	r1, [r4, #60]	; 0x3c
 8002672:	f8d2 3088 	ldr.w	r3, [r2, #136]	; 0x88
 8002676:	f023 5340 	bic.w	r3, r3, #805306368	; 0x30000000
 800267a:	430b      	orrs	r3, r1
 800267c:	f1b1 5f80 	cmp.w	r1, #268435456	; 0x10000000
 8002680:	f8c2 3088 	str.w	r3, [r2, #136]	; 0x88
 8002684:	d103      	bne.n	800268e <HAL_RCCEx_PeriphCLKConfig+0x222>
 8002686:	68d3      	ldr	r3, [r2, #12]
 8002688:	f443 3380 	orr.w	r3, r3, #65536	; 0x10000
 800268c:	60d3      	str	r3, [r2, #12]
 800268e:	b002      	add	sp, #8
 8002690:	e8bd 81f0 	ldmia.w	sp!, {r4, r5, r6, r7, r8, pc}
 8002694:	f8d5 2090 	ldr.w	r2, [r5, #144]	; 0x90
 8002698:	f8d5 3090 	ldr.w	r3, [r5, #144]	; 0x90
 800269c:	f443 3380 	orr.w	r3, r3, #65536	; 0x10000
 80026a0:	f8c5 3090 	str.w	r3, [r5, #144]	; 0x90
 80026a4:	f8d5 3090 	ldr.w	r3, [r5, #144]	; 0x90
 80026a8:	f422 7140 	bic.w	r1, r2, #768	; 0x300
 80026ac:	f423 3380 	bic.w	r3, r3, #65536	; 0x10000
 80026b0:	07d2      	lsls	r2, r2, #31
 80026b2:	f8c5 3090 	str.w	r3, [r5, #144]	; 0x90
 80026b6:	f8c5 1090 	str.w	r1, [r5, #144]	; 0x90
 80026ba:	f57f af00 	bpl.w	80024be <HAL_RCCEx_PeriphCLKConfig+0x52>
 80026be:	f7fe faf9 	bl	8000cb4 <HAL_GetTick>
 80026c2:	f241 3888 	movw	r8, #5000	; 0x1388
 80026c6:	4607      	mov	r7, r0
 80026c8:	f8d5 3090 	ldr.w	r3, [r5, #144]	; 0x90
 80026cc:	079b      	lsls	r3, r3, #30
 80026ce:	f53f aef6 	bmi.w	80024be <HAL_RCCEx_PeriphCLKConfig+0x52>
 80026d2:	f7fe faef 	bl	8000cb4 <HAL_GetTick>
 80026d6:	1bc0      	subs	r0, r0, r7
 80026d8:	4540      	cmp	r0, r8
 80026da:	d9f5      	bls.n	80026c8 <HAL_RCCEx_PeriphCLKConfig+0x25c>
 80026dc:	e701      	b.n	80024e2 <HAL_RCCEx_PeriphCLKConfig+0x76>
 80026de:	bf00      	nop
 80026e0:	40021000 	.word	0x40021000
 80026e4:	40007000 	.word	0x40007000

080026e8 <TIM_OC1_SetConfig>:
 80026e8:	6a03      	ldr	r3, [r0, #32]
 80026ea:	f023 0301 	bic.w	r3, r3, #1
 80026ee:	6203      	str	r3, [r0, #32]
 80026f0:	6a03      	ldr	r3, [r0, #32]
 80026f2:	b570      	push	{r4, r5, r6, lr}
 80026f4:	6844      	ldr	r4, [r0, #4]
 80026f6:	6982      	ldr	r2, [r0, #24]
 80026f8:	680d      	ldr	r5, [r1, #0]
 80026fa:	f422 3280 	bic.w	r2, r2, #65536	; 0x10000
 80026fe:	f022 0273 	bic.w	r2, r2, #115	; 0x73
 8002702:	432a      	orrs	r2, r5
 8002704:	688d      	ldr	r5, [r1, #8]
 8002706:	f023 0302 	bic.w	r3, r3, #2
 800270a:	432b      	orrs	r3, r5
 800270c:	4d1b      	ldr	r5, [pc, #108]	; (800277c <TIM_OC1_SetConfig+0x94>)
 800270e:	42a8      	cmp	r0, r5
 8002710:	d00f      	beq.n	8002732 <TIM_OC1_SetConfig+0x4a>
 8002712:	f505 6500 	add.w	r5, r5, #2048	; 0x800
 8002716:	42a8      	cmp	r0, r5
 8002718:	d00b      	beq.n	8002732 <TIM_OC1_SetConfig+0x4a>
 800271a:	f505 6540 	add.w	r5, r5, #3072	; 0xc00
 800271e:	42a8      	cmp	r0, r5
 8002720:	d007      	beq.n	8002732 <TIM_OC1_SetConfig+0x4a>
 8002722:	f505 6580 	add.w	r5, r5, #1024	; 0x400
 8002726:	42a8      	cmp	r0, r5
 8002728:	d003      	beq.n	8002732 <TIM_OC1_SetConfig+0x4a>
 800272a:	f505 6580 	add.w	r5, r5, #1024	; 0x400
 800272e:	42a8      	cmp	r0, r5
 8002730:	d11e      	bne.n	8002770 <TIM_OC1_SetConfig+0x88>
 8002732:	68cd      	ldr	r5, [r1, #12]
 8002734:	f023 0308 	bic.w	r3, r3, #8
 8002738:	432b      	orrs	r3, r5
 800273a:	4d10      	ldr	r5, [pc, #64]	; (800277c <TIM_OC1_SetConfig+0x94>)
 800273c:	42a8      	cmp	r0, r5
 800273e:	f023 0304 	bic.w	r3, r3, #4
 8002742:	d00f      	beq.n	8002764 <TIM_OC1_SetConfig+0x7c>
 8002744:	f505 6500 	add.w	r5, r5, #2048	; 0x800
 8002748:	42a8      	cmp	r0, r5
 800274a:	d00b      	beq.n	8002764 <TIM_OC1_SetConfig+0x7c>
 800274c:	f505 6540 	add.w	r5, r5, #3072	; 0xc00
 8002750:	42a8      	cmp	r0, r5
 8002752:	d007      	beq.n	8002764 <TIM_OC1_SetConfig+0x7c>
 8002754:	f505 6580 	add.w	r5, r5, #1024	; 0x400
 8002758:	42a8      	cmp	r0, r5
 800275a:	d003      	beq.n	8002764 <TIM_OC1_SetConfig+0x7c>
 800275c:	f505 6580 	add.w	r5, r5, #1024	; 0x400
 8002760:	42a8      	cmp	r0, r5
 8002762:	d105      	bne.n	8002770 <TIM_OC1_SetConfig+0x88>
 8002764:	f424 7540 	bic.w	r5, r4, #768	; 0x300
 8002768:	e9d1 4605 	ldrd	r4, r6, [r1, #20]
 800276c:	4334      	orrs	r4, r6
 800276e:	432c      	orrs	r4, r5
 8002770:	6044      	str	r4, [r0, #4]
 8002772:	6182      	str	r2, [r0, #24]
 8002774:	684a      	ldr	r2, [r1, #4]
 8002776:	6342      	str	r2, [r0, #52]	; 0x34
 8002778:	6203      	str	r3, [r0, #32]
 800277a:	bd70      	pop	{r4, r5, r6, pc}
 800277c:	40012c00 	.word	0x40012c00

08002780 <TIM_OC3_SetConfig>:
 8002780:	6a03      	ldr	r3, [r0, #32]
 8002782:	f423 7380 	bic.w	r3, r3, #256	; 0x100
 8002786:	6203      	str	r3, [r0, #32]
 8002788:	6a03      	ldr	r3, [r0, #32]
 800278a:	b570      	push	{r4, r5, r6, lr}
 800278c:	6844      	ldr	r4, [r0, #4]
 800278e:	69c2      	ldr	r2, [r0, #28]
 8002790:	680d      	ldr	r5, [r1, #0]
 8002792:	f422 3280 	bic.w	r2, r2, #65536	; 0x10000
 8002796:	f022 0273 	bic.w	r2, r2, #115	; 0x73
 800279a:	432a      	orrs	r2, r5
 800279c:	688d      	ldr	r5, [r1, #8]
 800279e:	f423 7300 	bic.w	r3, r3, #512	; 0x200
 80027a2:	ea43 2305 	orr.w	r3, r3, r5, lsl #8
 80027a6:	4d16      	ldr	r5, [pc, #88]	; (8002800 <TIM_OC3_SetConfig+0x80>)
 80027a8:	42a8      	cmp	r0, r5
 80027aa:	d003      	beq.n	80027b4 <TIM_OC3_SetConfig+0x34>
 80027ac:	f505 6500 	add.w	r5, r5, #2048	; 0x800
 80027b0:	42a8      	cmp	r0, r5
 80027b2:	d10d      	bne.n	80027d0 <TIM_OC3_SetConfig+0x50>
 80027b4:	68cd      	ldr	r5, [r1, #12]
 80027b6:	f423 6300 	bic.w	r3, r3, #2048	; 0x800
 80027ba:	ea43 2305 	orr.w	r3, r3, r5, lsl #8
 80027be:	4d10      	ldr	r5, [pc, #64]	; (8002800 <TIM_OC3_SetConfig+0x80>)
 80027c0:	42a8      	cmp	r0, r5
 80027c2:	f423 6380 	bic.w	r3, r3, #1024	; 0x400
 80027c6:	d00e      	beq.n	80027e6 <TIM_OC3_SetConfig+0x66>
 80027c8:	f505 6500 	add.w	r5, r5, #2048	; 0x800
 80027cc:	42a8      	cmp	r0, r5
 80027ce:	d00a      	beq.n	80027e6 <TIM_OC3_SetConfig+0x66>
 80027d0:	4d0c      	ldr	r5, [pc, #48]	; (8002804 <TIM_OC3_SetConfig+0x84>)
 80027d2:	42a8      	cmp	r0, r5
 80027d4:	d007      	beq.n	80027e6 <TIM_OC3_SetConfig+0x66>
 80027d6:	f505 6580 	add.w	r5, r5, #1024	; 0x400
 80027da:	42a8      	cmp	r0, r5
 80027dc:	d003      	beq.n	80027e6 <TIM_OC3_SetConfig+0x66>
 80027de:	f505 6580 	add.w	r5, r5, #1024	; 0x400
 80027e2:	42a8      	cmp	r0, r5
 80027e4:	d106      	bne.n	80027f4 <TIM_OC3_SetConfig+0x74>
 80027e6:	f424 5540 	bic.w	r5, r4, #12288	; 0x3000
 80027ea:	e9d1 4605 	ldrd	r4, r6, [r1, #20]
 80027ee:	4334      	orrs	r4, r6
 80027f0:	ea45 1404 	orr.w	r4, r5, r4, lsl #4
 80027f4:	6044      	str	r4, [r0, #4]
 80027f6:	61c2      	str	r2, [r0, #28]
 80027f8:	684a      	ldr	r2, [r1, #4]
 80027fa:	63c2      	str	r2, [r0, #60]	; 0x3c
 80027fc:	6203      	str	r3, [r0, #32]
 80027fe:	bd70      	pop	{r4, r5, r6, pc}
 8002800:	40012c00 	.word	0x40012c00
 8002804:	40014000 	.word	0x40014000

08002808 <TIM_OC4_SetConfig>:
 8002808:	6a03      	ldr	r3, [r0, #32]
 800280a:	f423 5380 	bic.w	r3, r3, #4096	; 0x1000
 800280e:	6203      	str	r3, [r0, #32]
 8002810:	6a03      	ldr	r3, [r0, #32]
 8002812:	b570      	push	{r4, r5, r6, lr}
 8002814:	6844      	ldr	r4, [r0, #4]
 8002816:	69c2      	ldr	r2, [r0, #28]
 8002818:	680d      	ldr	r5, [r1, #0]
 800281a:	f022 7280 	bic.w	r2, r2, #16777216	; 0x1000000
 800281e:	f422 42e6 	bic.w	r2, r2, #29440	; 0x7300
 8002822:	ea42 2205 	orr.w	r2, r2, r5, lsl #8
 8002826:	688d      	ldr	r5, [r1, #8]
 8002828:	f423 5300 	bic.w	r3, r3, #8192	; 0x2000
 800282c:	ea43 3305 	orr.w	r3, r3, r5, lsl #12
 8002830:	4d16      	ldr	r5, [pc, #88]	; (800288c <TIM_OC4_SetConfig+0x84>)
 8002832:	42a8      	cmp	r0, r5
 8002834:	d003      	beq.n	800283e <TIM_OC4_SetConfig+0x36>
 8002836:	f505 6500 	add.w	r5, r5, #2048	; 0x800
 800283a:	42a8      	cmp	r0, r5
 800283c:	d10d      	bne.n	800285a <TIM_OC4_SetConfig+0x52>
 800283e:	68cd      	ldr	r5, [r1, #12]
 8002840:	f423 4300 	bic.w	r3, r3, #32768	; 0x8000
 8002844:	ea43 3305 	orr.w	r3, r3, r5, lsl #12
 8002848:	4d10      	ldr	r5, [pc, #64]	; (800288c <TIM_OC4_SetConfig+0x84>)
 800284a:	42a8      	cmp	r0, r5
 800284c:	f423 4380 	bic.w	r3, r3, #16384	; 0x4000
 8002850:	d00e      	beq.n	8002870 <TIM_OC4_SetConfig+0x68>
 8002852:	f505 6500 	add.w	r5, r5, #2048	; 0x800
 8002856:	42a8      	cmp	r0, r5
 8002858:	d00a      	beq.n	8002870 <TIM_OC4_SetConfig+0x68>
 800285a:	4d0d      	ldr	r5, [pc, #52]	; (8002890 <TIM_OC4_SetConfig+0x88>)
 800285c:	42a8      	cmp	r0, r5
 800285e:	d007      	beq.n	8002870 <TIM_OC4_SetConfig+0x68>
 8002860:	f505 6580 	add.w	r5, r5, #1024	; 0x400
 8002864:	42a8      	cmp	r0, r5
 8002866:	d003      	beq.n	8002870 <TIM_OC4_SetConfig+0x68>
 8002868:	f505 6580 	add.w	r5, r5, #1024	; 0x400
 800286c:	42a8      	cmp	r0, r5
 800286e:	d106      	bne.n	800287e <TIM_OC4_SetConfig+0x76>
 8002870:	f424 4540 	bic.w	r5, r4, #49152	; 0xc000
 8002874:	e9d1 4605 	ldrd	r4, r6, [r1, #20]
 8002878:	4334      	orrs	r4, r6
 800287a:	ea45 1484 	orr.w	r4, r5, r4, lsl #6
 800287e:	6044      	str	r4, [r0, #4]
 8002880:	61c2      	str	r2, [r0, #28]
 8002882:	684a      	ldr	r2, [r1, #4]
 8002884:	6402      	str	r2, [r0, #64]	; 0x40
 8002886:	6203      	str	r3, [r0, #32]
 8002888:	bd70      	pop	{r4, r5, r6, pc}
 800288a:	bf00      	nop
 800288c:	40012c00 	.word	0x40012c00
 8002890:	40014000 	.word	0x40014000

08002894 <TIM_OC5_SetConfig>:
 8002894:	6a03      	ldr	r3, [r0, #32]
 8002896:	f423 3380 	bic.w	r3, r3, #65536	; 0x10000
 800289a:	6203      	str	r3, [r0, #32]
 800289c:	6a03      	ldr	r3, [r0, #32]
 800289e:	b530      	push	{r4, r5, lr}
 80028a0:	6844      	ldr	r4, [r0, #4]
 80028a2:	6d02      	ldr	r2, [r0, #80]	; 0x50
 80028a4:	680d      	ldr	r5, [r1, #0]
 80028a6:	f422 3280 	bic.w	r2, r2, #65536	; 0x10000
 80028aa:	f022 0270 	bic.w	r2, r2, #112	; 0x70
 80028ae:	432a      	orrs	r2, r5
 80028b0:	688d      	ldr	r5, [r1, #8]
 80028b2:	f423 3300 	bic.w	r3, r3, #131072	; 0x20000
 80028b6:	ea43 4305 	orr.w	r3, r3, r5, lsl #16
 80028ba:	4d0f      	ldr	r5, [pc, #60]	; (80028f8 <TIM_OC5_SetConfig+0x64>)
 80028bc:	42a8      	cmp	r0, r5
 80028be:	d00f      	beq.n	80028e0 <TIM_OC5_SetConfig+0x4c>
 80028c0:	f505 6500 	add.w	r5, r5, #2048	; 0x800
 80028c4:	42a8      	cmp	r0, r5
 80028c6:	d00b      	beq.n	80028e0 <TIM_OC5_SetConfig+0x4c>
 80028c8:	f505 6540 	add.w	r5, r5, #3072	; 0xc00
 80028cc:	42a8      	cmp	r0, r5
 80028ce:	d007      	beq.n	80028e0 <TIM_OC5_SetConfig+0x4c>
 80028d0:	f505 6580 	add.w	r5, r5, #1024	; 0x400
 80028d4:	42a8      	cmp	r0, r5
 80028d6:	d003      	beq.n	80028e0 <TIM_OC5_SetConfig+0x4c>
 80028d8:	f505 6580 	add.w	r5, r5, #1024	; 0x400
 80028dc:	42a8      	cmp	r0, r5
 80028de:	d104      	bne.n	80028ea <TIM_OC5_SetConfig+0x56>
 80028e0:	694d      	ldr	r5, [r1, #20]
 80028e2:	f424 3480 	bic.w	r4, r4, #65536	; 0x10000
 80028e6:	ea44 2405 	orr.w	r4, r4, r5, lsl #8
 80028ea:	6044      	str	r4, [r0, #4]
 80028ec:	6502      	str	r2, [r0, #80]	; 0x50
 80028ee:	684a      	ldr	r2, [r1, #4]
 80028f0:	6482      	str	r2, [r0, #72]	; 0x48
 80028f2:	6203      	str	r3, [r0, #32]
 80028f4:	bd30      	pop	{r4, r5, pc}
 80028f6:	bf00      	nop
 80028f8:	40012c00 	.word	0x40012c00

080028fc <TIM_OC6_SetConfig>:
 80028fc:	6a03      	ldr	r3, [r0, #32]
 80028fe:	f423 1380 	bic.w	r3, r3, #1048576	; 0x100000
 8002902:	6203      	str	r3, [r0, #32]
 8002904:	6a03      	ldr	r3, [r0, #32]
 8002906:	b530      	push	{r4, r5, lr}
 8002908:	6844      	ldr	r4, [r0, #4]
 800290a:	6d02      	ldr	r2, [r0, #80]	; 0x50
 800290c:	680d      	ldr	r5, [r1, #0]
 800290e:	f022 7280 	bic.w	r2, r2, #16777216	; 0x1000000
 8002912:	f422 42e0 	bic.w	r2, r2, #28672	; 0x7000
 8002916:	ea42 2205 	orr.w	r2, r2, r5, lsl #8
 800291a:	688d      	ldr	r5, [r1, #8]
 800291c:	f423 1300 	bic.w	r3, r3, #2097152	; 0x200000
 8002920:	ea43 5305 	orr.w	r3, r3, r5, lsl #20
 8002924:	4d0e      	ldr	r5, [pc, #56]	; (8002960 <TIM_OC6_SetConfig+0x64>)
 8002926:	42a8      	cmp	r0, r5
 8002928:	d00f      	beq.n	800294a <TIM_OC6_SetConfig+0x4e>
 800292a:	f505 6500 	add.w	r5, r5, #2048	; 0x800
 800292e:	42a8      	cmp	r0, r5
 8002930:	d00b      	beq.n	800294a <TIM_OC6_SetConfig+0x4e>
 8002932:	f505 6540 	add.w	r5, r5, #3072	; 0xc00
 8002936:	42a8      	cmp	r0, r5
 8002938:	d007      	beq.n	800294a <TIM_OC6_SetConfig+0x4e>
 800293a:	f505 6580 	add.w	r5, r5, #1024	; 0x400
 800293e:	42a8      	cmp	r0, r5
 8002940:	d003      	beq.n	800294a <TIM_OC6_SetConfig+0x4e>
 8002942:	f505 6580 	add.w	r5, r5, #1024	; 0x400
 8002946:	42a8      	cmp	r0, r5
 8002948:	d104      	bne.n	8002954 <TIM_OC6_SetConfig+0x58>
 800294a:	694d      	ldr	r5, [r1, #20]
 800294c:	f424 2480 	bic.w	r4, r4, #262144	; 0x40000
 8002950:	ea44 2485 	orr.w	r4, r4, r5, lsl #10
 8002954:	6044      	str	r4, [r0, #4]
 8002956:	6502      	str	r2, [r0, #80]	; 0x50
 8002958:	684a      	ldr	r2, [r1, #4]
 800295a:	64c2      	str	r2, [r0, #76]	; 0x4c
 800295c:	6203      	str	r3, [r0, #32]
 800295e:	bd30      	pop	{r4, r5, pc}
 8002960:	40012c00 	.word	0x40012c00

08002964 <HAL_TIM_Base_Start_IT>:
 8002964:	f890 303d 	ldrb.w	r3, [r0, #61]	; 0x3d
 8002968:	2b01      	cmp	r3, #1
 800296a:	d12b      	bne.n	80029c4 <HAL_TIM_Base_Start_IT+0x60>
 800296c:	2302      	movs	r3, #2
 800296e:	f880 303d 	strb.w	r3, [r0, #61]	; 0x3d
 8002972:	6803      	ldr	r3, [r0, #0]
 8002974:	68da      	ldr	r2, [r3, #12]
 8002976:	f042 0201 	orr.w	r2, r2, #1
 800297a:	60da      	str	r2, [r3, #12]
 800297c:	4a12      	ldr	r2, [pc, #72]	; (80029c8 <HAL_TIM_Base_Start_IT+0x64>)
 800297e:	4293      	cmp	r3, r2
 8002980:	d012      	beq.n	80029a8 <HAL_TIM_Base_Start_IT+0x44>
 8002982:	f1b3 4f80 	cmp.w	r3, #1073741824	; 0x40000000
 8002986:	d00f      	beq.n	80029a8 <HAL_TIM_Base_Start_IT+0x44>
 8002988:	f5a2 3294 	sub.w	r2, r2, #75776	; 0x12800
 800298c:	4293      	cmp	r3, r2
 800298e:	d00b      	beq.n	80029a8 <HAL_TIM_Base_Start_IT+0x44>
 8002990:	f502 6280 	add.w	r2, r2, #1024	; 0x400
 8002994:	4293      	cmp	r3, r2
 8002996:	d007      	beq.n	80029a8 <HAL_TIM_Base_Start_IT+0x44>
 8002998:	f502 3296 	add.w	r2, r2, #76800	; 0x12c00
 800299c:	4293      	cmp	r3, r2
 800299e:	d003      	beq.n	80029a8 <HAL_TIM_Base_Start_IT+0x44>
 80029a0:	f502 6240 	add.w	r2, r2, #3072	; 0xc00
 80029a4:	4293      	cmp	r3, r2
 80029a6:	d107      	bne.n	80029b8 <HAL_TIM_Base_Start_IT+0x54>
 80029a8:	6899      	ldr	r1, [r3, #8]
 80029aa:	4a08      	ldr	r2, [pc, #32]	; (80029cc <HAL_TIM_Base_Start_IT+0x68>)
 80029ac:	400a      	ands	r2, r1
 80029ae:	2a06      	cmp	r2, #6
 80029b0:	d006      	beq.n	80029c0 <HAL_TIM_Base_Start_IT+0x5c>
 80029b2:	f5b2 3f80 	cmp.w	r2, #65536	; 0x10000
 80029b6:	d003      	beq.n	80029c0 <HAL_TIM_Base_Start_IT+0x5c>
 80029b8:	681a      	ldr	r2, [r3, #0]
 80029ba:	f042 0201 	orr.w	r2, r2, #1
 80029be:	601a      	str	r2, [r3, #0]
 80029c0:	2000      	movs	r0, #0
 80029c2:	4770      	bx	lr
 80029c4:	2001      	movs	r0, #1
 80029c6:	4770      	bx	lr
 80029c8:	40012c00 	.word	0x40012c00
 80029cc:	00010007 	.word	0x00010007

080029d0 <HAL_TIM_Encoder_Start>:
 80029d0:	b530      	push	{r4, r5, lr}
 80029d2:	f890 203e 	ldrb.w	r2, [r0, #62]	; 0x3e
 80029d6:	f890 303f 	ldrb.w	r3, [r0, #63]	; 0x3f
 80029da:	f890 5044 	ldrb.w	r5, [r0, #68]	; 0x44
 80029de:	f890 4045 	ldrb.w	r4, [r0, #69]	; 0x45
 80029e2:	b2d2      	uxtb	r2, r2
 80029e4:	b2db      	uxtb	r3, r3
 80029e6:	b2ed      	uxtb	r5, r5
 80029e8:	b2e4      	uxtb	r4, r4
 80029ea:	b9c9      	cbnz	r1, 8002a20 <HAL_TIM_Encoder_Start+0x50>
 80029ec:	2a01      	cmp	r2, #1
 80029ee:	d146      	bne.n	8002a7e <HAL_TIM_Encoder_Start+0xae>
 80029f0:	2d01      	cmp	r5, #1
 80029f2:	d146      	bne.n	8002a82 <HAL_TIM_Encoder_Start+0xb2>
 80029f4:	2302      	movs	r3, #2
 80029f6:	f880 303e 	strb.w	r3, [r0, #62]	; 0x3e
 80029fa:	f880 3044 	strb.w	r3, [r0, #68]	; 0x44
 80029fe:	6803      	ldr	r3, [r0, #0]
 8002a00:	6a1a      	ldr	r2, [r3, #32]
 8002a02:	f022 0201 	bic.w	r2, r2, #1
 8002a06:	621a      	str	r2, [r3, #32]
 8002a08:	6a1a      	ldr	r2, [r3, #32]
 8002a0a:	f042 0201 	orr.w	r2, r2, #1
 8002a0e:	621a      	str	r2, [r3, #32]
 8002a10:	6802      	ldr	r2, [r0, #0]
 8002a12:	6813      	ldr	r3, [r2, #0]
 8002a14:	f043 0301 	orr.w	r3, r3, #1
 8002a18:	6013      	str	r3, [r2, #0]
 8002a1a:	2300      	movs	r3, #0
 8002a1c:	4618      	mov	r0, r3
 8002a1e:	bd30      	pop	{r4, r5, pc}
 8002a20:	2904      	cmp	r1, #4
 8002a22:	d111      	bne.n	8002a48 <HAL_TIM_Encoder_Start+0x78>
 8002a24:	2b01      	cmp	r3, #1
 8002a26:	d12a      	bne.n	8002a7e <HAL_TIM_Encoder_Start+0xae>
 8002a28:	2c01      	cmp	r4, #1
 8002a2a:	d1f7      	bne.n	8002a1c <HAL_TIM_Encoder_Start+0x4c>
 8002a2c:	2302      	movs	r3, #2
 8002a2e:	f880 303f 	strb.w	r3, [r0, #63]	; 0x3f
 8002a32:	f880 3045 	strb.w	r3, [r0, #69]	; 0x45
 8002a36:	6803      	ldr	r3, [r0, #0]
 8002a38:	6a1a      	ldr	r2, [r3, #32]
 8002a3a:	f022 0210 	bic.w	r2, r2, #16
 8002a3e:	621a      	str	r2, [r3, #32]
 8002a40:	6a1a      	ldr	r2, [r3, #32]
 8002a42:	f042 0210 	orr.w	r2, r2, #16
 8002a46:	e7e2      	b.n	8002a0e <HAL_TIM_Encoder_Start+0x3e>
 8002a48:	2a01      	cmp	r2, #1
 8002a4a:	d118      	bne.n	8002a7e <HAL_TIM_Encoder_Start+0xae>
 8002a4c:	2b01      	cmp	r3, #1
 8002a4e:	d118      	bne.n	8002a82 <HAL_TIM_Encoder_Start+0xb2>
 8002a50:	2d01      	cmp	r5, #1
 8002a52:	d1e3      	bne.n	8002a1c <HAL_TIM_Encoder_Start+0x4c>
 8002a54:	2c01      	cmp	r4, #1
 8002a56:	d1e1      	bne.n	8002a1c <HAL_TIM_Encoder_Start+0x4c>
 8002a58:	2302      	movs	r3, #2
 8002a5a:	f880 303e 	strb.w	r3, [r0, #62]	; 0x3e
 8002a5e:	f880 303f 	strb.w	r3, [r0, #63]	; 0x3f
 8002a62:	f880 3044 	strb.w	r3, [r0, #68]	; 0x44
 8002a66:	f880 3045 	strb.w	r3, [r0, #69]	; 0x45
 8002a6a:	6803      	ldr	r3, [r0, #0]
 8002a6c:	6a1a      	ldr	r2, [r3, #32]
 8002a6e:	f022 0201 	bic.w	r2, r2, #1
 8002a72:	621a      	str	r2, [r3, #32]
 8002a74:	6a1a      	ldr	r2, [r3, #32]
 8002a76:	f042 0201 	orr.w	r2, r2, #1
 8002a7a:	621a      	str	r2, [r3, #32]
 8002a7c:	e7dc      	b.n	8002a38 <HAL_TIM_Encoder_Start+0x68>
 8002a7e:	2301      	movs	r3, #1
 8002a80:	e7cc      	b.n	8002a1c <HAL_TIM_Encoder_Start+0x4c>
 8002a82:	4613      	mov	r3, r2
 8002a84:	e7ca      	b.n	8002a1c <HAL_TIM_Encoder_Start+0x4c>

08002a86 <HAL_TIM_OC_DelayElapsedCallback>:
 8002a86:	4770      	bx	lr

08002a88 <HAL_TIM_IC_CaptureCallback>:
 8002a88:	4770      	bx	lr

08002a8a <HAL_TIM_PWM_PulseFinishedCallback>:
 8002a8a:	4770      	bx	lr

08002a8c <TIM_DMADelayPulseCplt>:
 8002a8c:	b510      	push	{r4, lr}
 8002a8e:	6a84      	ldr	r4, [r0, #40]	; 0x28
 8002a90:	6a62      	ldr	r2, [r4, #36]	; 0x24
 8002a92:	4282      	cmp	r2, r0
 8002a94:	d10b      	bne.n	8002aae <TIM_DMADelayPulseCplt+0x22>
 8002a96:	2301      	movs	r3, #1
 8002a98:	7723      	strb	r3, [r4, #28]
 8002a9a:	69d2      	ldr	r2, [r2, #28]
 8002a9c:	b90a      	cbnz	r2, 8002aa2 <TIM_DMADelayPulseCplt+0x16>
 8002a9e:	f884 303e 	strb.w	r3, [r4, #62]	; 0x3e
 8002aa2:	4620      	mov	r0, r4
 8002aa4:	f7ff fff1 	bl	8002a8a <HAL_TIM_PWM_PulseFinishedCallback>
 8002aa8:	2300      	movs	r3, #0
 8002aaa:	7723      	strb	r3, [r4, #28]
 8002aac:	bd10      	pop	{r4, pc}
 8002aae:	6aa3      	ldr	r3, [r4, #40]	; 0x28
 8002ab0:	4283      	cmp	r3, r0
 8002ab2:	d108      	bne.n	8002ac6 <TIM_DMADelayPulseCplt+0x3a>
 8002ab4:	2202      	movs	r2, #2
 8002ab6:	7722      	strb	r2, [r4, #28]
 8002ab8:	69db      	ldr	r3, [r3, #28]
 8002aba:	2b00      	cmp	r3, #0
 8002abc:	d1f1      	bne.n	8002aa2 <TIM_DMADelayPulseCplt+0x16>
 8002abe:	2301      	movs	r3, #1
 8002ac0:	f884 303f 	strb.w	r3, [r4, #63]	; 0x3f
 8002ac4:	e7ed      	b.n	8002aa2 <TIM_DMADelayPulseCplt+0x16>
 8002ac6:	6ae3      	ldr	r3, [r4, #44]	; 0x2c
 8002ac8:	4283      	cmp	r3, r0
 8002aca:	d108      	bne.n	8002ade <TIM_DMADelayPulseCplt+0x52>
 8002acc:	2204      	movs	r2, #4
 8002ace:	7722      	strb	r2, [r4, #28]
 8002ad0:	69db      	ldr	r3, [r3, #28]
 8002ad2:	2b00      	cmp	r3, #0
 8002ad4:	d1e5      	bne.n	8002aa2 <TIM_DMADelayPulseCplt+0x16>
 8002ad6:	2301      	movs	r3, #1
 8002ad8:	f884 3040 	strb.w	r3, [r4, #64]	; 0x40
 8002adc:	e7e1      	b.n	8002aa2 <TIM_DMADelayPulseCplt+0x16>
 8002ade:	6b23      	ldr	r3, [r4, #48]	; 0x30
 8002ae0:	4283      	cmp	r3, r0
 8002ae2:	d1de      	bne.n	8002aa2 <TIM_DMADelayPulseCplt+0x16>
 8002ae4:	2208      	movs	r2, #8
 8002ae6:	7722      	strb	r2, [r4, #28]
 8002ae8:	69db      	ldr	r3, [r3, #28]
 8002aea:	2b00      	cmp	r3, #0
 8002aec:	d1d9      	bne.n	8002aa2 <TIM_DMADelayPulseCplt+0x16>
 8002aee:	2301      	movs	r3, #1
 8002af0:	f884 3041 	strb.w	r3, [r4, #65]	; 0x41
 8002af4:	e7d5      	b.n	8002aa2 <TIM_DMADelayPulseCplt+0x16>

08002af6 <HAL_TIM_PWM_PulseFinishedHalfCpltCallback>:
 8002af6:	4770      	bx	lr

08002af8 <TIM_DMADelayPulseHalfCplt>:
 8002af8:	b510      	push	{r4, lr}
 8002afa:	6a84      	ldr	r4, [r0, #40]	; 0x28
 8002afc:	6a63      	ldr	r3, [r4, #36]	; 0x24
 8002afe:	4283      	cmp	r3, r0
 8002b00:	d107      	bne.n	8002b12 <TIM_DMADelayPulseHalfCplt+0x1a>
 8002b02:	2301      	movs	r3, #1
 8002b04:	7723      	strb	r3, [r4, #28]
 8002b06:	4620      	mov	r0, r4
 8002b08:	f7ff fff5 	bl	8002af6 <HAL_TIM_PWM_PulseFinishedHalfCpltCallback>
 8002b0c:	2300      	movs	r3, #0
 8002b0e:	7723      	strb	r3, [r4, #28]
 8002b10:	bd10      	pop	{r4, pc}
 8002b12:	6aa3      	ldr	r3, [r4, #40]	; 0x28
 8002b14:	4283      	cmp	r3, r0
 8002b16:	d101      	bne.n	8002b1c <TIM_DMADelayPulseHalfCplt+0x24>
 8002b18:	2302      	movs	r3, #2
 8002b1a:	e7f3      	b.n	8002b04 <TIM_DMADelayPulseHalfCplt+0xc>
 8002b1c:	6ae3      	ldr	r3, [r4, #44]	; 0x2c
 8002b1e:	4283      	cmp	r3, r0
 8002b20:	d101      	bne.n	8002b26 <TIM_DMADelayPulseHalfCplt+0x2e>
 8002b22:	2304      	movs	r3, #4
 8002b24:	e7ee      	b.n	8002b04 <TIM_DMADelayPulseHalfCplt+0xc>
 8002b26:	6b23      	ldr	r3, [r4, #48]	; 0x30
 8002b28:	4283      	cmp	r3, r0
 8002b2a:	d1ec      	bne.n	8002b06 <TIM_DMADelayPulseHalfCplt+0xe>
 8002b2c:	2308      	movs	r3, #8
 8002b2e:	e7e9      	b.n	8002b04 <TIM_DMADelayPulseHalfCplt+0xc>

08002b30 <HAL_TIM_TriggerCallback>:
 8002b30:	4770      	bx	lr

08002b32 <HAL_TIM_IRQHandler>:
 8002b32:	6803      	ldr	r3, [r0, #0]
 8002b34:	691a      	ldr	r2, [r3, #16]
 8002b36:	0791      	lsls	r1, r2, #30
 8002b38:	b510      	push	{r4, lr}
 8002b3a:	4604      	mov	r4, r0
 8002b3c:	d50f      	bpl.n	8002b5e <HAL_TIM_IRQHandler+0x2c>
 8002b3e:	68da      	ldr	r2, [r3, #12]
 8002b40:	0792      	lsls	r2, r2, #30
 8002b42:	d50c      	bpl.n	8002b5e <HAL_TIM_IRQHandler+0x2c>
 8002b44:	f06f 0202 	mvn.w	r2, #2
 8002b48:	611a      	str	r2, [r3, #16]
 8002b4a:	2201      	movs	r2, #1
 8002b4c:	7702      	strb	r2, [r0, #28]
 8002b4e:	699b      	ldr	r3, [r3, #24]
 8002b50:	0799      	lsls	r1, r3, #30
 8002b52:	f000 80bc 	beq.w	8002cce <HAL_TIM_IRQHandler+0x19c>
 8002b56:	f7ff ff97 	bl	8002a88 <HAL_TIM_IC_CaptureCallback>
 8002b5a:	2300      	movs	r3, #0
 8002b5c:	7723      	strb	r3, [r4, #28]
 8002b5e:	6823      	ldr	r3, [r4, #0]
 8002b60:	691a      	ldr	r2, [r3, #16]
 8002b62:	0752      	lsls	r2, r2, #29
 8002b64:	d511      	bpl.n	8002b8a <HAL_TIM_IRQHandler+0x58>
 8002b66:	68da      	ldr	r2, [r3, #12]
 8002b68:	0750      	lsls	r0, r2, #29
 8002b6a:	d50e      	bpl.n	8002b8a <HAL_TIM_IRQHandler+0x58>
 8002b6c:	f06f 0204 	mvn.w	r2, #4
 8002b70:	611a      	str	r2, [r3, #16]
 8002b72:	2202      	movs	r2, #2
 8002b74:	7722      	strb	r2, [r4, #28]
 8002b76:	699b      	ldr	r3, [r3, #24]
 8002b78:	f413 7f40 	tst.w	r3, #768	; 0x300
 8002b7c:	4620      	mov	r0, r4
 8002b7e:	f000 80ac 	beq.w	8002cda <HAL_TIM_IRQHandler+0x1a8>
 8002b82:	f7ff ff81 	bl	8002a88 <HAL_TIM_IC_CaptureCallback>
 8002b86:	2300      	movs	r3, #0
 8002b88:	7723      	strb	r3, [r4, #28]
 8002b8a:	6823      	ldr	r3, [r4, #0]
 8002b8c:	691a      	ldr	r2, [r3, #16]
 8002b8e:	0711      	lsls	r1, r2, #28
 8002b90:	d510      	bpl.n	8002bb4 <HAL_TIM_IRQHandler+0x82>
 8002b92:	68da      	ldr	r2, [r3, #12]
 8002b94:	0712      	lsls	r2, r2, #28
 8002b96:	d50d      	bpl.n	8002bb4 <HAL_TIM_IRQHandler+0x82>
 8002b98:	f06f 0208 	mvn.w	r2, #8
 8002b9c:	611a      	str	r2, [r3, #16]
 8002b9e:	2204      	movs	r2, #4
 8002ba0:	7722      	strb	r2, [r4, #28]
 8002ba2:	69db      	ldr	r3, [r3, #28]
 8002ba4:	079b      	lsls	r3, r3, #30
 8002ba6:	4620      	mov	r0, r4
 8002ba8:	f000 809d 	beq.w	8002ce6 <HAL_TIM_IRQHandler+0x1b4>
 8002bac:	f7ff ff6c 	bl	8002a88 <HAL_TIM_IC_CaptureCallback>
 8002bb0:	2300      	movs	r3, #0
 8002bb2:	7723      	strb	r3, [r4, #28]
 8002bb4:	6823      	ldr	r3, [r4, #0]
 8002bb6:	691a      	ldr	r2, [r3, #16]
 8002bb8:	06d1      	lsls	r1, r2, #27
 8002bba:	d511      	bpl.n	8002be0 <HAL_TIM_IRQHandler+0xae>
 8002bbc:	68da      	ldr	r2, [r3, #12]
 8002bbe:	06d2      	lsls	r2, r2, #27
 8002bc0:	d50e      	bpl.n	8002be0 <HAL_TIM_IRQHandler+0xae>
 8002bc2:	f06f 0210 	mvn.w	r2, #16
 8002bc6:	611a      	str	r2, [r3, #16]
 8002bc8:	2208      	movs	r2, #8
 8002bca:	7722      	strb	r2, [r4, #28]
 8002bcc:	69db      	ldr	r3, [r3, #28]
 8002bce:	f413 7f40 	tst.w	r3, #768	; 0x300
 8002bd2:	4620      	mov	r0, r4
 8002bd4:	f000 808d 	beq.w	8002cf2 <HAL_TIM_IRQHandler+0x1c0>
 8002bd8:	f7ff ff56 	bl	8002a88 <HAL_TIM_IC_CaptureCallback>
 8002bdc:	2300      	movs	r3, #0
 8002bde:	7723      	strb	r3, [r4, #28]
 8002be0:	6823      	ldr	r3, [r4, #0]
 8002be2:	691a      	ldr	r2, [r3, #16]
 8002be4:	07d0      	lsls	r0, r2, #31
 8002be6:	d508      	bpl.n	8002bfa <HAL_TIM_IRQHandler+0xc8>
 8002be8:	68da      	ldr	r2, [r3, #12]
 8002bea:	07d1      	lsls	r1, r2, #31
 8002bec:	d505      	bpl.n	8002bfa <HAL_TIM_IRQHandler+0xc8>
 8002bee:	f06f 0201 	mvn.w	r2, #1
 8002bf2:	611a      	str	r2, [r3, #16]
 8002bf4:	4620      	mov	r0, r4
 8002bf6:	f7fd fb39 	bl	800026c <HAL_TIM_PeriodElapsedCallback>
 8002bfa:	6823      	ldr	r3, [r4, #0]
 8002bfc:	691a      	ldr	r2, [r3, #16]
 8002bfe:	0612      	lsls	r2, r2, #24
 8002c00:	d508      	bpl.n	8002c14 <HAL_TIM_IRQHandler+0xe2>
 8002c02:	68da      	ldr	r2, [r3, #12]
 8002c04:	0610      	lsls	r0, r2, #24
 8002c06:	d505      	bpl.n	8002c14 <HAL_TIM_IRQHandler+0xe2>
 8002c08:	f06f 0280 	mvn.w	r2, #128	; 0x80
 8002c0c:	611a      	str	r2, [r3, #16]
 8002c0e:	4620      	mov	r0, r4
 8002c10:	f000 fcc5 	bl	800359e <HAL_TIMEx_BreakCallback>
 8002c14:	6823      	ldr	r3, [r4, #0]
 8002c16:	691a      	ldr	r2, [r3, #16]
 8002c18:	05d1      	lsls	r1, r2, #23
 8002c1a:	d508      	bpl.n	8002c2e <HAL_TIM_IRQHandler+0xfc>
 8002c1c:	68da      	ldr	r2, [r3, #12]
 8002c1e:	0612      	lsls	r2, r2, #24
 8002c20:	d505      	bpl.n	8002c2e <HAL_TIM_IRQHandler+0xfc>
 8002c22:	f46f 7280 	mvn.w	r2, #256	; 0x100
 8002c26:	611a      	str	r2, [r3, #16]
 8002c28:	4620      	mov	r0, r4
 8002c2a:	f000 fcb9 	bl	80035a0 <HAL_TIMEx_Break2Callback>
 8002c2e:	6823      	ldr	r3, [r4, #0]
 8002c30:	691a      	ldr	r2, [r3, #16]
 8002c32:	0650      	lsls	r0, r2, #25
 8002c34:	d508      	bpl.n	8002c48 <HAL_TIM_IRQHandler+0x116>
 8002c36:	68da      	ldr	r2, [r3, #12]
 8002c38:	0651      	lsls	r1, r2, #25
 8002c3a:	d505      	bpl.n	8002c48 <HAL_TIM_IRQHandler+0x116>
 8002c3c:	f06f 0240 	mvn.w	r2, #64	; 0x40
 8002c40:	611a      	str	r2, [r3, #16]
 8002c42:	4620      	mov	r0, r4
 8002c44:	f7ff ff74 	bl	8002b30 <HAL_TIM_TriggerCallback>
 8002c48:	6823      	ldr	r3, [r4, #0]
 8002c4a:	691a      	ldr	r2, [r3, #16]
 8002c4c:	0692      	lsls	r2, r2, #26
 8002c4e:	d508      	bpl.n	8002c62 <HAL_TIM_IRQHandler+0x130>
 8002c50:	68da      	ldr	r2, [r3, #12]
 8002c52:	0690      	lsls	r0, r2, #26
 8002c54:	d505      	bpl.n	8002c62 <HAL_TIM_IRQHandler+0x130>
 8002c56:	f06f 0220 	mvn.w	r2, #32
 8002c5a:	611a      	str	r2, [r3, #16]
 8002c5c:	4620      	mov	r0, r4
 8002c5e:	f000 fc9d 	bl	800359c <HAL_TIMEx_CommutCallback>
 8002c62:	6823      	ldr	r3, [r4, #0]
 8002c64:	691a      	ldr	r2, [r3, #16]
 8002c66:	02d1      	lsls	r1, r2, #11
 8002c68:	d508      	bpl.n	8002c7c <HAL_TIM_IRQHandler+0x14a>
 8002c6a:	68da      	ldr	r2, [r3, #12]
 8002c6c:	02d2      	lsls	r2, r2, #11
 8002c6e:	d505      	bpl.n	8002c7c <HAL_TIM_IRQHandler+0x14a>
 8002c70:	f46f 1280 	mvn.w	r2, #1048576	; 0x100000
 8002c74:	611a      	str	r2, [r3, #16]
 8002c76:	4620      	mov	r0, r4
 8002c78:	f000 fc93 	bl	80035a2 <HAL_TIMEx_EncoderIndexCallback>
 8002c7c:	6823      	ldr	r3, [r4, #0]
 8002c7e:	691a      	ldr	r2, [r3, #16]
 8002c80:	0290      	lsls	r0, r2, #10
 8002c82:	d508      	bpl.n	8002c96 <HAL_TIM_IRQHandler+0x164>
 8002c84:	68da      	ldr	r2, [r3, #12]
 8002c86:	0291      	lsls	r1, r2, #10
 8002c88:	d505      	bpl.n	8002c96 <HAL_TIM_IRQHandler+0x164>
 8002c8a:	f46f 1200 	mvn.w	r2, #2097152	; 0x200000
 8002c8e:	611a      	str	r2, [r3, #16]
 8002c90:	4620      	mov	r0, r4
 8002c92:	f000 fc87 	bl	80035a4 <HAL_TIMEx_DirectionChangeCallback>
 8002c96:	6823      	ldr	r3, [r4, #0]
 8002c98:	691a      	ldr	r2, [r3, #16]
 8002c9a:	0252      	lsls	r2, r2, #9
 8002c9c:	d508      	bpl.n	8002cb0 <HAL_TIM_IRQHandler+0x17e>
 8002c9e:	68da      	ldr	r2, [r3, #12]
 8002ca0:	0250      	lsls	r0, r2, #9
 8002ca2:	d505      	bpl.n	8002cb0 <HAL_TIM_IRQHandler+0x17e>
 8002ca4:	f46f 0280 	mvn.w	r2, #4194304	; 0x400000
 8002ca8:	611a      	str	r2, [r3, #16]
 8002caa:	4620      	mov	r0, r4
 8002cac:	f000 fc7b 	bl	80035a6 <HAL_TIMEx_IndexErrorCallback>
 8002cb0:	6823      	ldr	r3, [r4, #0]
 8002cb2:	691a      	ldr	r2, [r3, #16]
 8002cb4:	0211      	lsls	r1, r2, #8
 8002cb6:	d522      	bpl.n	8002cfe <HAL_TIM_IRQHandler+0x1cc>
 8002cb8:	68da      	ldr	r2, [r3, #12]
 8002cba:	0212      	lsls	r2, r2, #8
 8002cbc:	d51f      	bpl.n	8002cfe <HAL_TIM_IRQHandler+0x1cc>
 8002cbe:	f46f 0200 	mvn.w	r2, #8388608	; 0x800000
 8002cc2:	4620      	mov	r0, r4
 8002cc4:	611a      	str	r2, [r3, #16]
 8002cc6:	e8bd 4010 	ldmia.w	sp!, {r4, lr}
 8002cca:	f000 bc6d 	b.w	80035a8 <HAL_TIMEx_TransitionErrorCallback>
 8002cce:	f7ff feda 	bl	8002a86 <HAL_TIM_OC_DelayElapsedCallback>
 8002cd2:	4620      	mov	r0, r4
 8002cd4:	f7ff fed9 	bl	8002a8a <HAL_TIM_PWM_PulseFinishedCallback>
 8002cd8:	e73f      	b.n	8002b5a <HAL_TIM_IRQHandler+0x28>
 8002cda:	f7ff fed4 	bl	8002a86 <HAL_TIM_OC_DelayElapsedCallback>
 8002cde:	4620      	mov	r0, r4
 8002ce0:	f7ff fed3 	bl	8002a8a <HAL_TIM_PWM_PulseFinishedCallback>
 8002ce4:	e74f      	b.n	8002b86 <HAL_TIM_IRQHandler+0x54>
 8002ce6:	f7ff fece 	bl	8002a86 <HAL_TIM_OC_DelayElapsedCallback>
 8002cea:	4620      	mov	r0, r4
 8002cec:	f7ff fecd 	bl	8002a8a <HAL_TIM_PWM_PulseFinishedCallback>
 8002cf0:	e75e      	b.n	8002bb0 <HAL_TIM_IRQHandler+0x7e>
 8002cf2:	f7ff fec8 	bl	8002a86 <HAL_TIM_OC_DelayElapsedCallback>
 8002cf6:	4620      	mov	r0, r4
 8002cf8:	f7ff fec7 	bl	8002a8a <HAL_TIM_PWM_PulseFinishedCallback>
 8002cfc:	e76e      	b.n	8002bdc <HAL_TIM_IRQHandler+0xaa>
 8002cfe:	bd10      	pop	{r4, pc}

08002d00 <HAL_TIM_ErrorCallback>:
 8002d00:	4770      	bx	lr

08002d02 <TIM_DMAError>:
 8002d02:	b510      	push	{r4, lr}
 8002d04:	6a84      	ldr	r4, [r0, #40]	; 0x28
 8002d06:	6a63      	ldr	r3, [r4, #36]	; 0x24
 8002d08:	4283      	cmp	r3, r0
 8002d0a:	d109      	bne.n	8002d20 <TIM_DMAError+0x1e>
 8002d0c:	2301      	movs	r3, #1
 8002d0e:	7723      	strb	r3, [r4, #28]
 8002d10:	f884 303e 	strb.w	r3, [r4, #62]	; 0x3e
 8002d14:	4620      	mov	r0, r4
 8002d16:	f7ff fff3 	bl	8002d00 <HAL_TIM_ErrorCallback>
 8002d1a:	2300      	movs	r3, #0
 8002d1c:	7723      	strb	r3, [r4, #28]
 8002d1e:	bd10      	pop	{r4, pc}
 8002d20:	6aa3      	ldr	r3, [r4, #40]	; 0x28
 8002d22:	4283      	cmp	r3, r0
 8002d24:	d105      	bne.n	8002d32 <TIM_DMAError+0x30>
 8002d26:	2302      	movs	r3, #2
 8002d28:	7723      	strb	r3, [r4, #28]
 8002d2a:	2301      	movs	r3, #1
 8002d2c:	f884 303f 	strb.w	r3, [r4, #63]	; 0x3f
 8002d30:	e7f0      	b.n	8002d14 <TIM_DMAError+0x12>
 8002d32:	6ae3      	ldr	r3, [r4, #44]	; 0x2c
 8002d34:	4283      	cmp	r3, r0
 8002d36:	f04f 0301 	mov.w	r3, #1
 8002d3a:	d104      	bne.n	8002d46 <TIM_DMAError+0x44>
 8002d3c:	2204      	movs	r2, #4
 8002d3e:	7722      	strb	r2, [r4, #28]
 8002d40:	f884 3040 	strb.w	r3, [r4, #64]	; 0x40
 8002d44:	e7e6      	b.n	8002d14 <TIM_DMAError+0x12>
 8002d46:	6b22      	ldr	r2, [r4, #48]	; 0x30
 8002d48:	4282      	cmp	r2, r0
 8002d4a:	bf03      	ittte	eq
 8002d4c:	2208      	moveq	r2, #8
 8002d4e:	7722      	strbeq	r2, [r4, #28]
 8002d50:	f884 3041 	strbeq.w	r3, [r4, #65]	; 0x41
 8002d54:	f884 303d 	strbne.w	r3, [r4, #61]	; 0x3d
 8002d58:	e7dc      	b.n	8002d14 <TIM_DMAError+0x12>
	...

08002d5c <TIM_Base_SetConfig>:
 8002d5c:	4a2c      	ldr	r2, [pc, #176]	; (8002e10 <TIM_Base_SetConfig+0xb4>)
 8002d5e:	6803      	ldr	r3, [r0, #0]
 8002d60:	4290      	cmp	r0, r2
 8002d62:	d00e      	beq.n	8002d82 <TIM_Base_SetConfig+0x26>
 8002d64:	f1b0 4f80 	cmp.w	r0, #1073741824	; 0x40000000
 8002d68:	d00b      	beq.n	8002d82 <TIM_Base_SetConfig+0x26>
 8002d6a:	f5a2 3294 	sub.w	r2, r2, #75776	; 0x12800
 8002d6e:	4290      	cmp	r0, r2
 8002d70:	d007      	beq.n	8002d82 <TIM_Base_SetConfig+0x26>
 8002d72:	f502 6280 	add.w	r2, r2, #1024	; 0x400
 8002d76:	4290      	cmp	r0, r2
 8002d78:	d003      	beq.n	8002d82 <TIM_Base_SetConfig+0x26>
 8002d7a:	f502 3296 	add.w	r2, r2, #76800	; 0x12c00
 8002d7e:	4290      	cmp	r0, r2
 8002d80:	d115      	bne.n	8002dae <TIM_Base_SetConfig+0x52>
 8002d82:	684a      	ldr	r2, [r1, #4]
 8002d84:	f023 0370 	bic.w	r3, r3, #112	; 0x70
 8002d88:	4313      	orrs	r3, r2
 8002d8a:	4a21      	ldr	r2, [pc, #132]	; (8002e10 <TIM_Base_SetConfig+0xb4>)
 8002d8c:	4290      	cmp	r0, r2
 8002d8e:	d019      	beq.n	8002dc4 <TIM_Base_SetConfig+0x68>
 8002d90:	f1b0 4f80 	cmp.w	r0, #1073741824	; 0x40000000
 8002d94:	d016      	beq.n	8002dc4 <TIM_Base_SetConfig+0x68>
 8002d96:	f5a2 3294 	sub.w	r2, r2, #75776	; 0x12800
 8002d9a:	4290      	cmp	r0, r2
 8002d9c:	d012      	beq.n	8002dc4 <TIM_Base_SetConfig+0x68>
 8002d9e:	f502 6280 	add.w	r2, r2, #1024	; 0x400
 8002da2:	4290      	cmp	r0, r2
 8002da4:	d00e      	beq.n	8002dc4 <TIM_Base_SetConfig+0x68>
 8002da6:	f502 3296 	add.w	r2, r2, #76800	; 0x12c00
 8002daa:	4290      	cmp	r0, r2
 8002dac:	d00a      	beq.n	8002dc4 <TIM_Base_SetConfig+0x68>
 8002dae:	4a19      	ldr	r2, [pc, #100]	; (8002e14 <TIM_Base_SetConfig+0xb8>)
 8002db0:	4290      	cmp	r0, r2
 8002db2:	d007      	beq.n	8002dc4 <TIM_Base_SetConfig+0x68>
 8002db4:	f502 6280 	add.w	r2, r2, #1024	; 0x400
 8002db8:	4290      	cmp	r0, r2
 8002dba:	d003      	beq.n	8002dc4 <TIM_Base_SetConfig+0x68>
 8002dbc:	f502 6280 	add.w	r2, r2, #1024	; 0x400
 8002dc0:	4290      	cmp	r0, r2
 8002dc2:	d103      	bne.n	8002dcc <TIM_Base_SetConfig+0x70>
 8002dc4:	68ca      	ldr	r2, [r1, #12]
 8002dc6:	f423 7340 	bic.w	r3, r3, #768	; 0x300
 8002dca:	4313      	orrs	r3, r2
 8002dcc:	694a      	ldr	r2, [r1, #20]
 8002dce:	f023 0380 	bic.w	r3, r3, #128	; 0x80
 8002dd2:	4313      	orrs	r3, r2
 8002dd4:	6003      	str	r3, [r0, #0]
 8002dd6:	688b      	ldr	r3, [r1, #8]
 8002dd8:	62c3      	str	r3, [r0, #44]	; 0x2c
 8002dda:	680b      	ldr	r3, [r1, #0]
 8002ddc:	6283      	str	r3, [r0, #40]	; 0x28
 8002dde:	4b0c      	ldr	r3, [pc, #48]	; (8002e10 <TIM_Base_SetConfig+0xb4>)
 8002de0:	4298      	cmp	r0, r3
 8002de2:	d00f      	beq.n	8002e04 <TIM_Base_SetConfig+0xa8>
 8002de4:	f503 6300 	add.w	r3, r3, #2048	; 0x800
 8002de8:	4298      	cmp	r0, r3
 8002dea:	d00b      	beq.n	8002e04 <TIM_Base_SetConfig+0xa8>
 8002dec:	f503 6340 	add.w	r3, r3, #3072	; 0xc00
 8002df0:	4298      	cmp	r0, r3
 8002df2:	d007      	beq.n	8002e04 <TIM_Base_SetConfig+0xa8>
 8002df4:	f503 6380 	add.w	r3, r3, #1024	; 0x400
 8002df8:	4298      	cmp	r0, r3
 8002dfa:	d003      	beq.n	8002e04 <TIM_Base_SetConfig+0xa8>
 8002dfc:	f503 6380 	add.w	r3, r3, #1024	; 0x400
 8002e00:	4298      	cmp	r0, r3
 8002e02:	d101      	bne.n	8002e08 <TIM_Base_SetConfig+0xac>
 8002e04:	690b      	ldr	r3, [r1, #16]
 8002e06:	6303      	str	r3, [r0, #48]	; 0x30
 8002e08:	2301      	movs	r3, #1
 8002e0a:	6143      	str	r3, [r0, #20]
 8002e0c:	4770      	bx	lr
 8002e0e:	bf00      	nop
 8002e10:	40012c00 	.word	0x40012c00
 8002e14:	40014000 	.word	0x40014000

08002e18 <HAL_TIM_Base_Init>:
 8002e18:	b510      	push	{r4, lr}
 8002e1a:	4604      	mov	r4, r0
 8002e1c:	b350      	cbz	r0, 8002e74 <HAL_TIM_Base_Init+0x5c>
 8002e1e:	f890 303d 	ldrb.w	r3, [r0, #61]	; 0x3d
 8002e22:	f003 02ff 	and.w	r2, r3, #255	; 0xff
 8002e26:	b91b      	cbnz	r3, 8002e30 <HAL_TIM_Base_Init+0x18>
 8002e28:	f880 203c 	strb.w	r2, [r0, #60]	; 0x3c
 8002e2c:	f7fd fdf6 	bl	8000a1c <HAL_TIM_Base_MspInit>
 8002e30:	2302      	movs	r3, #2
 8002e32:	6820      	ldr	r0, [r4, #0]
 8002e34:	f884 303d 	strb.w	r3, [r4, #61]	; 0x3d
 8002e38:	1d21      	adds	r1, r4, #4
 8002e3a:	f7ff ff8f 	bl	8002d5c <TIM_Base_SetConfig>
 8002e3e:	2301      	movs	r3, #1
 8002e40:	f884 3048 	strb.w	r3, [r4, #72]	; 0x48
 8002e44:	2000      	movs	r0, #0
 8002e46:	f884 303e 	strb.w	r3, [r4, #62]	; 0x3e
 8002e4a:	f884 303f 	strb.w	r3, [r4, #63]	; 0x3f
 8002e4e:	f884 3040 	strb.w	r3, [r4, #64]	; 0x40
 8002e52:	f884 3041 	strb.w	r3, [r4, #65]	; 0x41
 8002e56:	f884 3042 	strb.w	r3, [r4, #66]	; 0x42
 8002e5a:	f884 3043 	strb.w	r3, [r4, #67]	; 0x43
 8002e5e:	f884 3044 	strb.w	r3, [r4, #68]	; 0x44
 8002e62:	f884 3045 	strb.w	r3, [r4, #69]	; 0x45
 8002e66:	f884 3046 	strb.w	r3, [r4, #70]	; 0x46
 8002e6a:	f884 3047 	strb.w	r3, [r4, #71]	; 0x47
 8002e6e:	f884 303d 	strb.w	r3, [r4, #61]	; 0x3d
 8002e72:	bd10      	pop	{r4, pc}
 8002e74:	2001      	movs	r0, #1
 8002e76:	e7fc      	b.n	8002e72 <HAL_TIM_Base_Init+0x5a>

08002e78 <HAL_TIM_PWM_Init>:
 8002e78:	b510      	push	{r4, lr}
 8002e7a:	4604      	mov	r4, r0
 8002e7c:	b350      	cbz	r0, 8002ed4 <HAL_TIM_PWM_Init+0x5c>
 8002e7e:	f890 303d 	ldrb.w	r3, [r0, #61]	; 0x3d
 8002e82:	f003 02ff 	and.w	r2, r3, #255	; 0xff
 8002e86:	b91b      	cbnz	r3, 8002e90 <HAL_TIM_PWM_Init+0x18>
 8002e88:	f880 203c 	strb.w	r2, [r0, #60]	; 0x3c
 8002e8c:	f7fd fd12 	bl	80008b4 <HAL_TIM_PWM_MspInit>
 8002e90:	2302      	movs	r3, #2
 8002e92:	6820      	ldr	r0, [r4, #0]
 8002e94:	f884 303d 	strb.w	r3, [r4, #61]	; 0x3d
 8002e98:	1d21      	adds	r1, r4, #4
 8002e9a:	f7ff ff5f 	bl	8002d5c <TIM_Base_SetConfig>
 8002e9e:	2301      	movs	r3, #1
 8002ea0:	f884 3048 	strb.w	r3, [r4, #72]	; 0x48
 8002ea4:	2000      	movs	r0, #0
 8002ea6:	f884 303e 	strb.w	r3, [r4, #62]	; 0x3e
 8002eaa:	f884 303f 	strb.w	r3, [r4, #63]	; 0x3f
 8002eae:	f884 3040 	strb.w	r3, [r4, #64]	; 0x40
 8002eb2:	f884 3041 	strb.w	r3, [r4, #65]	; 0x41
 8002eb6:	f884 3042 	strb.w	r3, [r4, #66]	; 0x42
 8002eba:	f884 3043 	strb.w	r3, [r4, #67]	; 0x43
 8002ebe:	f884 3044 	strb.w	r3, [r4, #68]	; 0x44
 8002ec2:	f884 3045 	strb.w	r3, [r4, #69]	; 0x45
 8002ec6:	f884 3046 	strb.w	r3, [r4, #70]	; 0x46
 8002eca:	f884 3047 	strb.w	r3, [r4, #71]	; 0x47
 8002ece:	f884 303d 	strb.w	r3, [r4, #61]	; 0x3d
 8002ed2:	bd10      	pop	{r4, pc}
 8002ed4:	2001      	movs	r0, #1
 8002ed6:	e7fc      	b.n	8002ed2 <HAL_TIM_PWM_Init+0x5a>

08002ed8 <HAL_TIM_Encoder_Init>:
 8002ed8:	b5f8      	push	{r3, r4, r5, r6, r7, lr}
 8002eda:	460d      	mov	r5, r1
 8002edc:	4604      	mov	r4, r0
 8002ede:	2800      	cmp	r0, #0
 8002ee0:	d04d      	beq.n	8002f7e <HAL_TIM_Encoder_Init+0xa6>
 8002ee2:	f890 303d 	ldrb.w	r3, [r0, #61]	; 0x3d
 8002ee6:	f003 02ff 	and.w	r2, r3, #255	; 0xff
 8002eea:	b91b      	cbnz	r3, 8002ef4 <HAL_TIM_Encoder_Init+0x1c>
 8002eec:	f880 203c 	strb.w	r2, [r0, #60]	; 0x3c
 8002ef0:	f7fd fd16 	bl	8000920 <HAL_TIM_Encoder_MspInit>
 8002ef4:	4621      	mov	r1, r4
 8002ef6:	2302      	movs	r3, #2
 8002ef8:	f884 303d 	strb.w	r3, [r4, #61]	; 0x3d
 8002efc:	f851 0b04 	ldr.w	r0, [r1], #4
 8002f00:	6883      	ldr	r3, [r0, #8]
 8002f02:	f423 33a0 	bic.w	r3, r3, #81920	; 0x14000
 8002f06:	f023 0307 	bic.w	r3, r3, #7
 8002f0a:	6083      	str	r3, [r0, #8]
 8002f0c:	f7ff ff26 	bl	8002d5c <TIM_Base_SetConfig>
 8002f10:	6820      	ldr	r0, [r4, #0]
 8002f12:	682a      	ldr	r2, [r5, #0]
 8002f14:	6886      	ldr	r6, [r0, #8]
 8002f16:	6983      	ldr	r3, [r0, #24]
 8002f18:	68a9      	ldr	r1, [r5, #8]
 8002f1a:	6a07      	ldr	r7, [r0, #32]
 8002f1c:	4316      	orrs	r6, r2
 8002f1e:	69aa      	ldr	r2, [r5, #24]
 8002f20:	f423 7340 	bic.w	r3, r3, #768	; 0x300
 8002f24:	ea41 2102 	orr.w	r1, r1, r2, lsl #8
 8002f28:	f023 0303 	bic.w	r3, r3, #3
 8002f2c:	430b      	orrs	r3, r1
 8002f2e:	f423 427c 	bic.w	r2, r3, #64512	; 0xfc00
 8002f32:	692b      	ldr	r3, [r5, #16]
 8002f34:	69e9      	ldr	r1, [r5, #28]
 8002f36:	011b      	lsls	r3, r3, #4
 8002f38:	ea43 2301 	orr.w	r3, r3, r1, lsl #8
 8002f3c:	68e9      	ldr	r1, [r5, #12]
 8002f3e:	430b      	orrs	r3, r1
 8002f40:	6a29      	ldr	r1, [r5, #32]
 8002f42:	f022 02fc 	bic.w	r2, r2, #252	; 0xfc
 8002f46:	ea43 3301 	orr.w	r3, r3, r1, lsl #12
 8002f4a:	4313      	orrs	r3, r2
 8002f4c:	6969      	ldr	r1, [r5, #20]
 8002f4e:	f027 02aa 	bic.w	r2, r7, #170	; 0xaa
 8002f52:	686f      	ldr	r7, [r5, #4]
 8002f54:	6086      	str	r6, [r0, #8]
 8002f56:	ea47 1701 	orr.w	r7, r7, r1, lsl #4
 8002f5a:	6183      	str	r3, [r0, #24]
 8002f5c:	4317      	orrs	r7, r2
 8002f5e:	2301      	movs	r3, #1
 8002f60:	6207      	str	r7, [r0, #32]
 8002f62:	f884 3048 	strb.w	r3, [r4, #72]	; 0x48
 8002f66:	2000      	movs	r0, #0
 8002f68:	f884 303e 	strb.w	r3, [r4, #62]	; 0x3e
 8002f6c:	f884 303f 	strb.w	r3, [r4, #63]	; 0x3f
 8002f70:	f884 3044 	strb.w	r3, [r4, #68]	; 0x44
 8002f74:	f884 3045 	strb.w	r3, [r4, #69]	; 0x45
 8002f78:	f884 303d 	strb.w	r3, [r4, #61]	; 0x3d
 8002f7c:	bdf8      	pop	{r3, r4, r5, r6, r7, pc}
 8002f7e:	2001      	movs	r0, #1
 8002f80:	e7fc      	b.n	8002f7c <HAL_TIM_Encoder_Init+0xa4>
	...

08002f84 <TIM_OC2_SetConfig>:
 8002f84:	6a03      	ldr	r3, [r0, #32]
 8002f86:	f023 0310 	bic.w	r3, r3, #16
 8002f8a:	6203      	str	r3, [r0, #32]
 8002f8c:	6a03      	ldr	r3, [r0, #32]
 8002f8e:	b570      	push	{r4, r5, r6, lr}
 8002f90:	6844      	ldr	r4, [r0, #4]
 8002f92:	6982      	ldr	r2, [r0, #24]
 8002f94:	680d      	ldr	r5, [r1, #0]
 8002f96:	f022 7280 	bic.w	r2, r2, #16777216	; 0x1000000
 8002f9a:	f422 42e6 	bic.w	r2, r2, #29440	; 0x7300
 8002f9e:	ea42 2205 	orr.w	r2, r2, r5, lsl #8
 8002fa2:	688d      	ldr	r5, [r1, #8]
 8002fa4:	f023 0320 	bic.w	r3, r3, #32
 8002fa8:	ea43 1305 	orr.w	r3, r3, r5, lsl #4
 8002fac:	4d16      	ldr	r5, [pc, #88]	; (8003008 <TIM_OC2_SetConfig+0x84>)
 8002fae:	42a8      	cmp	r0, r5
 8002fb0:	d003      	beq.n	8002fba <TIM_OC2_SetConfig+0x36>
 8002fb2:	f505 6500 	add.w	r5, r5, #2048	; 0x800
 8002fb6:	42a8      	cmp	r0, r5
 8002fb8:	d10d      	bne.n	8002fd6 <TIM_OC2_SetConfig+0x52>
 8002fba:	68cd      	ldr	r5, [r1, #12]
 8002fbc:	f023 0380 	bic.w	r3, r3, #128	; 0x80
 8002fc0:	ea43 1305 	orr.w	r3, r3, r5, lsl #4
 8002fc4:	4d10      	ldr	r5, [pc, #64]	; (8003008 <TIM_OC2_SetConfig+0x84>)
 8002fc6:	42a8      	cmp	r0, r5
 8002fc8:	f023 0340 	bic.w	r3, r3, #64	; 0x40
 8002fcc:	d00e      	beq.n	8002fec <TIM_OC2_SetConfig+0x68>
 8002fce:	f505 6500 	add.w	r5, r5, #2048	; 0x800
 8002fd2:	42a8      	cmp	r0, r5
 8002fd4:	d00a      	beq.n	8002fec <TIM_OC2_SetConfig+0x68>
 8002fd6:	4d0d      	ldr	r5, [pc, #52]	; (800300c <TIM_OC2_SetConfig+0x88>)
 8002fd8:	42a8      	cmp	r0, r5
 8002fda:	d007      	beq.n	8002fec <TIM_OC2_SetConfig+0x68>
 8002fdc:	f505 6580 	add.w	r5, r5, #1024	; 0x400
 8002fe0:	42a8      	cmp	r0, r5
 8002fe2:	d003      	beq.n	8002fec <TIM_OC2_SetConfig+0x68>
 8002fe4:	f505 6580 	add.w	r5, r5, #1024	; 0x400
 8002fe8:	42a8      	cmp	r0, r5
 8002fea:	d106      	bne.n	8002ffa <TIM_OC2_SetConfig+0x76>
 8002fec:	f424 6540 	bic.w	r5, r4, #3072	; 0xc00
 8002ff0:	e9d1 4605 	ldrd	r4, r6, [r1, #20]
 8002ff4:	4334      	orrs	r4, r6
 8002ff6:	ea45 0484 	orr.w	r4, r5, r4, lsl #2
 8002ffa:	6044      	str	r4, [r0, #4]
 8002ffc:	6182      	str	r2, [r0, #24]
 8002ffe:	684a      	ldr	r2, [r1, #4]
 8003000:	6382      	str	r2, [r0, #56]	; 0x38
 8003002:	6203      	str	r3, [r0, #32]
 8003004:	bd70      	pop	{r4, r5, r6, pc}
 8003006:	bf00      	nop
 8003008:	40012c00 	.word	0x40012c00
 800300c:	40014000 	.word	0x40014000

08003010 <HAL_TIM_PWM_ConfigChannel>:
 8003010:	b570      	push	{r4, r5, r6, lr}
 8003012:	f890 303c 	ldrb.w	r3, [r0, #60]	; 0x3c
 8003016:	2b01      	cmp	r3, #1
 8003018:	4605      	mov	r5, r0
 800301a:	d079      	beq.n	8003110 <HAL_TIM_PWM_ConfigChannel+0x100>
 800301c:	2001      	movs	r0, #1
 800301e:	2a0c      	cmp	r2, #12
 8003020:	f885 003c 	strb.w	r0, [r5, #60]	; 0x3c
 8003024:	d052      	beq.n	80030cc <HAL_TIM_PWM_ConfigChannel+0xbc>
 8003026:	d808      	bhi.n	800303a <HAL_TIM_PWM_ConfigChannel+0x2a>
 8003028:	2a04      	cmp	r2, #4
 800302a:	d02d      	beq.n	8003088 <HAL_TIM_PWM_ConfigChannel+0x78>
 800302c:	2a08      	cmp	r2, #8
 800302e:	d03c      	beq.n	80030aa <HAL_TIM_PWM_ConfigChannel+0x9a>
 8003030:	b1c2      	cbz	r2, 8003064 <HAL_TIM_PWM_ConfigChannel+0x54>
 8003032:	2300      	movs	r3, #0
 8003034:	f885 303c 	strb.w	r3, [r5, #60]	; 0x3c
 8003038:	bd70      	pop	{r4, r5, r6, pc}
 800303a:	2a10      	cmp	r2, #16
 800303c:	d057      	beq.n	80030ee <HAL_TIM_PWM_ConfigChannel+0xde>
 800303e:	2a14      	cmp	r2, #20
 8003040:	d1f7      	bne.n	8003032 <HAL_TIM_PWM_ConfigChannel+0x22>
 8003042:	6828      	ldr	r0, [r5, #0]
 8003044:	f7ff fc5a 	bl	80028fc <TIM_OC6_SetConfig>
 8003048:	682b      	ldr	r3, [r5, #0]
 800304a:	6909      	ldr	r1, [r1, #16]
 800304c:	6d1a      	ldr	r2, [r3, #80]	; 0x50
 800304e:	f442 6200 	orr.w	r2, r2, #2048	; 0x800
 8003052:	651a      	str	r2, [r3, #80]	; 0x50
 8003054:	6d1a      	ldr	r2, [r3, #80]	; 0x50
 8003056:	f422 6280 	bic.w	r2, r2, #1024	; 0x400
 800305a:	651a      	str	r2, [r3, #80]	; 0x50
 800305c:	6d1a      	ldr	r2, [r3, #80]	; 0x50
 800305e:	ea42 2201 	orr.w	r2, r2, r1, lsl #8
 8003062:	e053      	b.n	800310c <HAL_TIM_PWM_ConfigChannel+0xfc>
 8003064:	6828      	ldr	r0, [r5, #0]
 8003066:	f7ff fb3f 	bl	80026e8 <TIM_OC1_SetConfig>
 800306a:	682b      	ldr	r3, [r5, #0]
 800306c:	6909      	ldr	r1, [r1, #16]
 800306e:	699a      	ldr	r2, [r3, #24]
 8003070:	f042 0208 	orr.w	r2, r2, #8
 8003074:	619a      	str	r2, [r3, #24]
 8003076:	699a      	ldr	r2, [r3, #24]
 8003078:	f022 0204 	bic.w	r2, r2, #4
 800307c:	619a      	str	r2, [r3, #24]
 800307e:	699a      	ldr	r2, [r3, #24]
 8003080:	430a      	orrs	r2, r1
 8003082:	619a      	str	r2, [r3, #24]
 8003084:	2000      	movs	r0, #0
 8003086:	e7d4      	b.n	8003032 <HAL_TIM_PWM_ConfigChannel+0x22>
 8003088:	6828      	ldr	r0, [r5, #0]
 800308a:	f7ff ff7b 	bl	8002f84 <TIM_OC2_SetConfig>
 800308e:	682b      	ldr	r3, [r5, #0]
 8003090:	6909      	ldr	r1, [r1, #16]
 8003092:	699a      	ldr	r2, [r3, #24]
 8003094:	f442 6200 	orr.w	r2, r2, #2048	; 0x800
 8003098:	619a      	str	r2, [r3, #24]
 800309a:	699a      	ldr	r2, [r3, #24]
 800309c:	f422 6280 	bic.w	r2, r2, #1024	; 0x400
 80030a0:	619a      	str	r2, [r3, #24]
 80030a2:	699a      	ldr	r2, [r3, #24]
 80030a4:	ea42 2201 	orr.w	r2, r2, r1, lsl #8
 80030a8:	e7eb      	b.n	8003082 <HAL_TIM_PWM_ConfigChannel+0x72>
 80030aa:	6828      	ldr	r0, [r5, #0]
 80030ac:	f7ff fb68 	bl	8002780 <TIM_OC3_SetConfig>
 80030b0:	682b      	ldr	r3, [r5, #0]
 80030b2:	6909      	ldr	r1, [r1, #16]
 80030b4:	69da      	ldr	r2, [r3, #28]
 80030b6:	f042 0208 	orr.w	r2, r2, #8
 80030ba:	61da      	str	r2, [r3, #28]
 80030bc:	69da      	ldr	r2, [r3, #28]
 80030be:	f022 0204 	bic.w	r2, r2, #4
 80030c2:	61da      	str	r2, [r3, #28]
 80030c4:	69da      	ldr	r2, [r3, #28]
 80030c6:	430a      	orrs	r2, r1
 80030c8:	61da      	str	r2, [r3, #28]
 80030ca:	e7db      	b.n	8003084 <HAL_TIM_PWM_ConfigChannel+0x74>
 80030cc:	6828      	ldr	r0, [r5, #0]
 80030ce:	f7ff fb9b 	bl	8002808 <TIM_OC4_SetConfig>
 80030d2:	682b      	ldr	r3, [r5, #0]
 80030d4:	6909      	ldr	r1, [r1, #16]
 80030d6:	69da      	ldr	r2, [r3, #28]
 80030d8:	f442 6200 	orr.w	r2, r2, #2048	; 0x800
 80030dc:	61da      	str	r2, [r3, #28]
 80030de:	69da      	ldr	r2, [r3, #28]
 80030e0:	f422 6280 	bic.w	r2, r2, #1024	; 0x400
 80030e4:	61da      	str	r2, [r3, #28]
 80030e6:	69da      	ldr	r2, [r3, #28]
 80030e8:	ea42 2201 	orr.w	r2, r2, r1, lsl #8
 80030ec:	e7ec      	b.n	80030c8 <HAL_TIM_PWM_ConfigChannel+0xb8>
 80030ee:	6828      	ldr	r0, [r5, #0]
 80030f0:	f7ff fbd0 	bl	8002894 <TIM_OC5_SetConfig>
 80030f4:	682b      	ldr	r3, [r5, #0]
 80030f6:	6909      	ldr	r1, [r1, #16]
 80030f8:	6d1a      	ldr	r2, [r3, #80]	; 0x50
 80030fa:	f042 0208 	orr.w	r2, r2, #8
 80030fe:	651a      	str	r2, [r3, #80]	; 0x50
 8003100:	6d1a      	ldr	r2, [r3, #80]	; 0x50
 8003102:	f022 0204 	bic.w	r2, r2, #4
 8003106:	651a      	str	r2, [r3, #80]	; 0x50
 8003108:	6d1a      	ldr	r2, [r3, #80]	; 0x50
 800310a:	430a      	orrs	r2, r1
 800310c:	651a      	str	r2, [r3, #80]	; 0x50
 800310e:	e7b9      	b.n	8003084 <HAL_TIM_PWM_ConfigChannel+0x74>
 8003110:	2002      	movs	r0, #2
 8003112:	e791      	b.n	8003038 <HAL_TIM_PWM_ConfigChannel+0x28>

08003114 <TIM_CCxChannelCmd>:
 8003114:	6a03      	ldr	r3, [r0, #32]
 8003116:	f001 011f 	and.w	r1, r1, #31
 800311a:	b510      	push	{r4, lr}
 800311c:	2401      	movs	r4, #1
 800311e:	408c      	lsls	r4, r1
 8003120:	ea23 0304 	bic.w	r3, r3, r4
 8003124:	6203      	str	r3, [r0, #32]
 8003126:	6a03      	ldr	r3, [r0, #32]
 8003128:	408a      	lsls	r2, r1
 800312a:	431a      	orrs	r2, r3
 800312c:	6202      	str	r2, [r0, #32]
 800312e:	bd10      	pop	{r4, pc}

08003130 <HAL_TIM_OC_Start>:
 8003130:	b510      	push	{r4, lr}
 8003132:	4604      	mov	r4, r0
 8003134:	b929      	cbnz	r1, 8003142 <HAL_TIM_OC_Start+0x12>
 8003136:	f890 303e 	ldrb.w	r3, [r0, #62]	; 0x3e
 800313a:	2b01      	cmp	r3, #1
 800313c:	d027      	beq.n	800318e <HAL_TIM_OC_Start+0x5e>
 800313e:	2001      	movs	r0, #1
 8003140:	e049      	b.n	80031d6 <HAL_TIM_OC_Start+0xa6>
 8003142:	2904      	cmp	r1, #4
 8003144:	d107      	bne.n	8003156 <HAL_TIM_OC_Start+0x26>
 8003146:	f890 303f 	ldrb.w	r3, [r0, #63]	; 0x3f
 800314a:	2b01      	cmp	r3, #1
 800314c:	d1f7      	bne.n	800313e <HAL_TIM_OC_Start+0xe>
 800314e:	2302      	movs	r3, #2
 8003150:	f880 303f 	strb.w	r3, [r0, #63]	; 0x3f
 8003154:	e01e      	b.n	8003194 <HAL_TIM_OC_Start+0x64>
 8003156:	2908      	cmp	r1, #8
 8003158:	d10d      	bne.n	8003176 <HAL_TIM_OC_Start+0x46>
 800315a:	f890 3040 	ldrb.w	r3, [r0, #64]	; 0x40
 800315e:	3b01      	subs	r3, #1
 8003160:	bf18      	it	ne
 8003162:	2301      	movne	r3, #1
 8003164:	2b00      	cmp	r3, #0
 8003166:	d1ea      	bne.n	800313e <HAL_TIM_OC_Start+0xe>
 8003168:	2908      	cmp	r1, #8
 800316a:	f04f 0302 	mov.w	r3, #2
 800316e:	d133      	bne.n	80031d8 <HAL_TIM_OC_Start+0xa8>
 8003170:	f884 3040 	strb.w	r3, [r4, #64]	; 0x40
 8003174:	e00e      	b.n	8003194 <HAL_TIM_OC_Start+0x64>
 8003176:	290c      	cmp	r1, #12
 8003178:	d102      	bne.n	8003180 <HAL_TIM_OC_Start+0x50>
 800317a:	f890 3041 	ldrb.w	r3, [r0, #65]	; 0x41
 800317e:	e7ee      	b.n	800315e <HAL_TIM_OC_Start+0x2e>
 8003180:	2910      	cmp	r1, #16
 8003182:	bf0c      	ite	eq
 8003184:	f890 3042 	ldrbeq.w	r3, [r0, #66]	; 0x42
 8003188:	f890 3043 	ldrbne.w	r3, [r0, #67]	; 0x43
 800318c:	e7e7      	b.n	800315e <HAL_TIM_OC_Start+0x2e>
 800318e:	2302      	movs	r3, #2
 8003190:	f880 303e 	strb.w	r3, [r0, #62]	; 0x3e
 8003194:	2201      	movs	r2, #1
 8003196:	6820      	ldr	r0, [r4, #0]
 8003198:	f7ff ffbc 	bl	8003114 <TIM_CCxChannelCmd>
 800319c:	6823      	ldr	r3, [r4, #0]
 800319e:	4a24      	ldr	r2, [pc, #144]	; (8003230 <HAL_TIM_OC_Start+0x100>)
 80031a0:	4293      	cmp	r3, r2
 80031a2:	d025      	beq.n	80031f0 <HAL_TIM_OC_Start+0xc0>
 80031a4:	f502 6200 	add.w	r2, r2, #2048	; 0x800
 80031a8:	4293      	cmp	r3, r2
 80031aa:	d021      	beq.n	80031f0 <HAL_TIM_OC_Start+0xc0>
 80031ac:	f502 6240 	add.w	r2, r2, #3072	; 0xc00
 80031b0:	4293      	cmp	r3, r2
 80031b2:	d01d      	beq.n	80031f0 <HAL_TIM_OC_Start+0xc0>
 80031b4:	f502 6280 	add.w	r2, r2, #1024	; 0x400
 80031b8:	4293      	cmp	r3, r2
 80031ba:	d019      	beq.n	80031f0 <HAL_TIM_OC_Start+0xc0>
 80031bc:	f502 6280 	add.w	r2, r2, #1024	; 0x400
 80031c0:	4293      	cmp	r3, r2
 80031c2:	d015      	beq.n	80031f0 <HAL_TIM_OC_Start+0xc0>
 80031c4:	f1b3 4f80 	cmp.w	r3, #1073741824	; 0x40000000
 80031c8:	d11a      	bne.n	8003200 <HAL_TIM_OC_Start+0xd0>
 80031ca:	6899      	ldr	r1, [r3, #8]
 80031cc:	4a19      	ldr	r2, [pc, #100]	; (8003234 <HAL_TIM_OC_Start+0x104>)
 80031ce:	400a      	ands	r2, r1
 80031d0:	2a06      	cmp	r2, #6
 80031d2:	d129      	bne.n	8003228 <HAL_TIM_OC_Start+0xf8>
 80031d4:	2000      	movs	r0, #0
 80031d6:	bd10      	pop	{r4, pc}
 80031d8:	290c      	cmp	r1, #12
 80031da:	d102      	bne.n	80031e2 <HAL_TIM_OC_Start+0xb2>
 80031dc:	f884 3041 	strb.w	r3, [r4, #65]	; 0x41
 80031e0:	e7d8      	b.n	8003194 <HAL_TIM_OC_Start+0x64>
 80031e2:	2910      	cmp	r1, #16
 80031e4:	bf0c      	ite	eq
 80031e6:	f884 3042 	strbeq.w	r3, [r4, #66]	; 0x42
 80031ea:	f884 3043 	strbne.w	r3, [r4, #67]	; 0x43
 80031ee:	e7d1      	b.n	8003194 <HAL_TIM_OC_Start+0x64>
 80031f0:	6c5a      	ldr	r2, [r3, #68]	; 0x44
 80031f2:	f442 4200 	orr.w	r2, r2, #32768	; 0x8000
 80031f6:	645a      	str	r2, [r3, #68]	; 0x44
 80031f8:	4a0d      	ldr	r2, [pc, #52]	; (8003230 <HAL_TIM_OC_Start+0x100>)
 80031fa:	4293      	cmp	r3, r2
 80031fc:	d1e2      	bne.n	80031c4 <HAL_TIM_OC_Start+0x94>
 80031fe:	e7e4      	b.n	80031ca <HAL_TIM_OC_Start+0x9a>
 8003200:	4a0d      	ldr	r2, [pc, #52]	; (8003238 <HAL_TIM_OC_Start+0x108>)
 8003202:	4293      	cmp	r3, r2
 8003204:	d0e1      	beq.n	80031ca <HAL_TIM_OC_Start+0x9a>
 8003206:	f502 6280 	add.w	r2, r2, #1024	; 0x400
 800320a:	4293      	cmp	r3, r2
 800320c:	d0dd      	beq.n	80031ca <HAL_TIM_OC_Start+0x9a>
 800320e:	f502 3296 	add.w	r2, r2, #76800	; 0x12c00
 8003212:	4293      	cmp	r3, r2
 8003214:	d0d9      	beq.n	80031ca <HAL_TIM_OC_Start+0x9a>
 8003216:	f502 6240 	add.w	r2, r2, #3072	; 0xc00
 800321a:	4293      	cmp	r3, r2
 800321c:	d0d5      	beq.n	80031ca <HAL_TIM_OC_Start+0x9a>
 800321e:	681a      	ldr	r2, [r3, #0]
 8003220:	f042 0201 	orr.w	r2, r2, #1
 8003224:	601a      	str	r2, [r3, #0]
 8003226:	e7d5      	b.n	80031d4 <HAL_TIM_OC_Start+0xa4>
 8003228:	f5b2 3f80 	cmp.w	r2, #65536	; 0x10000
 800322c:	d1f7      	bne.n	800321e <HAL_TIM_OC_Start+0xee>
 800322e:	e7d1      	b.n	80031d4 <HAL_TIM_OC_Start+0xa4>
 8003230:	40012c00 	.word	0x40012c00
 8003234:	00010007 	.word	0x00010007
 8003238:	40000400 	.word	0x40000400

0800323c <HAL_TIM_PWM_Start>:
 800323c:	f7ff bf78 	b.w	8003130 <HAL_TIM_OC_Start>

08003240 <HAL_TIM_OC_Start_DMA>:
 8003240:	b538      	push	{r3, r4, r5, lr}
 8003242:	460d      	mov	r5, r1
 8003244:	4604      	mov	r4, r0
 8003246:	4611      	mov	r1, r2
 8003248:	b93d      	cbnz	r5, 800325a <HAL_TIM_OC_Start_DMA+0x1a>
 800324a:	f890 003e 	ldrb.w	r0, [r0, #62]	; 0x3e
 800324e:	1e82      	subs	r2, r0, #2
 8003250:	4250      	negs	r0, r2
 8003252:	4150      	adcs	r0, r2
 8003254:	b1c0      	cbz	r0, 8003288 <HAL_TIM_OC_Start_DMA+0x48>
 8003256:	2002      	movs	r0, #2
 8003258:	e021      	b.n	800329e <HAL_TIM_OC_Start_DMA+0x5e>
 800325a:	2d04      	cmp	r5, #4
 800325c:	d102      	bne.n	8003264 <HAL_TIM_OC_Start_DMA+0x24>
 800325e:	f890 003f 	ldrb.w	r0, [r0, #63]	; 0x3f
 8003262:	e7f4      	b.n	800324e <HAL_TIM_OC_Start_DMA+0xe>
 8003264:	2d08      	cmp	r5, #8
 8003266:	d102      	bne.n	800326e <HAL_TIM_OC_Start_DMA+0x2e>
 8003268:	f890 0040 	ldrb.w	r0, [r0, #64]	; 0x40
 800326c:	e7ef      	b.n	800324e <HAL_TIM_OC_Start_DMA+0xe>
 800326e:	2d0c      	cmp	r5, #12
 8003270:	d102      	bne.n	8003278 <HAL_TIM_OC_Start_DMA+0x38>
 8003272:	f890 0041 	ldrb.w	r0, [r0, #65]	; 0x41
 8003276:	e7ea      	b.n	800324e <HAL_TIM_OC_Start_DMA+0xe>
 8003278:	2d10      	cmp	r5, #16
 800327a:	d102      	bne.n	8003282 <HAL_TIM_OC_Start_DMA+0x42>
 800327c:	f890 0042 	ldrb.w	r0, [r0, #66]	; 0x42
 8003280:	e7e5      	b.n	800324e <HAL_TIM_OC_Start_DMA+0xe>
 8003282:	f890 0043 	ldrb.w	r0, [r0, #67]	; 0x43
 8003286:	e7e2      	b.n	800324e <HAL_TIM_OC_Start_DMA+0xe>
 8003288:	b955      	cbnz	r5, 80032a0 <HAL_TIM_OC_Start_DMA+0x60>
 800328a:	f894 003e 	ldrb.w	r0, [r4, #62]	; 0x3e
 800328e:	f100 3cff 	add.w	ip, r0, #4294967295
 8003292:	f1dc 0000 	rsbs	r0, ip, #0
 8003296:	eb40 000c 	adc.w	r0, r0, ip
 800329a:	b9a0      	cbnz	r0, 80032c6 <HAL_TIM_OC_Start_DMA+0x86>
 800329c:	2001      	movs	r0, #1
 800329e:	bd38      	pop	{r3, r4, r5, pc}
 80032a0:	2d04      	cmp	r5, #4
 80032a2:	d102      	bne.n	80032aa <HAL_TIM_OC_Start_DMA+0x6a>
 80032a4:	f894 003f 	ldrb.w	r0, [r4, #63]	; 0x3f
 80032a8:	e7f1      	b.n	800328e <HAL_TIM_OC_Start_DMA+0x4e>
 80032aa:	2d08      	cmp	r5, #8
 80032ac:	d102      	bne.n	80032b4 <HAL_TIM_OC_Start_DMA+0x74>
 80032ae:	f894 0040 	ldrb.w	r0, [r4, #64]	; 0x40
 80032b2:	e7ec      	b.n	800328e <HAL_TIM_OC_Start_DMA+0x4e>
 80032b4:	2d0c      	cmp	r5, #12
 80032b6:	d144      	bne.n	8003342 <HAL_TIM_OC_Start_DMA+0x102>
 80032b8:	f894 2041 	ldrb.w	r2, [r4, #65]	; 0x41
 80032bc:	1e50      	subs	r0, r2, #1
 80032be:	4242      	negs	r2, r0
 80032c0:	4142      	adcs	r2, r0
 80032c2:	2a00      	cmp	r2, #0
 80032c4:	d0ea      	beq.n	800329c <HAL_TIM_OC_Start_DMA+0x5c>
 80032c6:	b909      	cbnz	r1, 80032cc <HAL_TIM_OC_Start_DMA+0x8c>
 80032c8:	2b00      	cmp	r3, #0
 80032ca:	d1e7      	bne.n	800329c <HAL_TIM_OC_Start_DMA+0x5c>
 80032cc:	2202      	movs	r2, #2
 80032ce:	2d00      	cmp	r5, #0
 80032d0:	d150      	bne.n	8003374 <HAL_TIM_OC_Start_DMA+0x134>
 80032d2:	f884 203e 	strb.w	r2, [r4, #62]	; 0x3e
 80032d6:	6a60      	ldr	r0, [r4, #36]	; 0x24
 80032d8:	4a5b      	ldr	r2, [pc, #364]	; (8003448 <HAL_TIM_OC_Start_DMA+0x208>)
 80032da:	62c2      	str	r2, [r0, #44]	; 0x2c
 80032dc:	4a5b      	ldr	r2, [pc, #364]	; (800344c <HAL_TIM_OC_Start_DMA+0x20c>)
 80032de:	6302      	str	r2, [r0, #48]	; 0x30
 80032e0:	4a5b      	ldr	r2, [pc, #364]	; (8003450 <HAL_TIM_OC_Start_DMA+0x210>)
 80032e2:	6342      	str	r2, [r0, #52]	; 0x34
 80032e4:	6822      	ldr	r2, [r4, #0]
 80032e6:	3234      	adds	r2, #52	; 0x34
 80032e8:	f7fd fd6a 	bl	8000dc0 <HAL_DMA_Start_IT>
 80032ec:	2800      	cmp	r0, #0
 80032ee:	d1d5      	bne.n	800329c <HAL_TIM_OC_Start_DMA+0x5c>
 80032f0:	6822      	ldr	r2, [r4, #0]
 80032f2:	68d3      	ldr	r3, [r2, #12]
 80032f4:	f443 7300 	orr.w	r3, r3, #512	; 0x200
 80032f8:	60d3      	str	r3, [r2, #12]
 80032fa:	6820      	ldr	r0, [r4, #0]
 80032fc:	2201      	movs	r2, #1
 80032fe:	4629      	mov	r1, r5
 8003300:	f7ff ff08 	bl	8003114 <TIM_CCxChannelCmd>
 8003304:	6823      	ldr	r3, [r4, #0]
 8003306:	4a53      	ldr	r2, [pc, #332]	; (8003454 <HAL_TIM_OC_Start_DMA+0x214>)
 8003308:	4293      	cmp	r3, r2
 800330a:	d07c      	beq.n	8003406 <HAL_TIM_OC_Start_DMA+0x1c6>
 800330c:	f502 6200 	add.w	r2, r2, #2048	; 0x800
 8003310:	4293      	cmp	r3, r2
 8003312:	d078      	beq.n	8003406 <HAL_TIM_OC_Start_DMA+0x1c6>
 8003314:	f502 6240 	add.w	r2, r2, #3072	; 0xc00
 8003318:	4293      	cmp	r3, r2
 800331a:	d074      	beq.n	8003406 <HAL_TIM_OC_Start_DMA+0x1c6>
 800331c:	f502 6280 	add.w	r2, r2, #1024	; 0x400
 8003320:	4293      	cmp	r3, r2
 8003322:	d070      	beq.n	8003406 <HAL_TIM_OC_Start_DMA+0x1c6>
 8003324:	f502 6280 	add.w	r2, r2, #1024	; 0x400
 8003328:	4293      	cmp	r3, r2
 800332a:	d06c      	beq.n	8003406 <HAL_TIM_OC_Start_DMA+0x1c6>
 800332c:	f1b3 4f80 	cmp.w	r3, #1073741824	; 0x40000000
 8003330:	d171      	bne.n	8003416 <HAL_TIM_OC_Start_DMA+0x1d6>
 8003332:	6899      	ldr	r1, [r3, #8]
 8003334:	4a48      	ldr	r2, [pc, #288]	; (8003458 <HAL_TIM_OC_Start_DMA+0x218>)
 8003336:	400a      	ands	r2, r1
 8003338:	2a06      	cmp	r2, #6
 800333a:	f040 8081 	bne.w	8003440 <HAL_TIM_OC_Start_DMA+0x200>
 800333e:	2000      	movs	r0, #0
 8003340:	e7ad      	b.n	800329e <HAL_TIM_OC_Start_DMA+0x5e>
 8003342:	2d10      	cmp	r5, #16
 8003344:	d102      	bne.n	800334c <HAL_TIM_OC_Start_DMA+0x10c>
 8003346:	f894 2042 	ldrb.w	r2, [r4, #66]	; 0x42
 800334a:	e7b7      	b.n	80032bc <HAL_TIM_OC_Start_DMA+0x7c>
 800334c:	f894 2043 	ldrb.w	r2, [r4, #67]	; 0x43
 8003350:	2a01      	cmp	r2, #1
 8003352:	d1a3      	bne.n	800329c <HAL_TIM_OC_Start_DMA+0x5c>
 8003354:	2900      	cmp	r1, #0
 8003356:	d0b7      	beq.n	80032c8 <HAL_TIM_OC_Start_DMA+0x88>
 8003358:	2202      	movs	r2, #2
 800335a:	2d0c      	cmp	r5, #12
 800335c:	f884 2043 	strb.w	r2, [r4, #67]	; 0x43
 8003360:	d039      	beq.n	80033d6 <HAL_TIM_OC_Start_DMA+0x196>
 8003362:	d89b      	bhi.n	800329c <HAL_TIM_OC_Start_DMA+0x5c>
 8003364:	2d08      	cmp	r5, #8
 8003366:	d01f      	beq.n	80033a8 <HAL_TIM_OC_Start_DMA+0x168>
 8003368:	d898      	bhi.n	800329c <HAL_TIM_OC_Start_DMA+0x5c>
 800336a:	2d00      	cmp	r5, #0
 800336c:	d0b3      	beq.n	80032d6 <HAL_TIM_OC_Start_DMA+0x96>
 800336e:	2d04      	cmp	r5, #4
 8003370:	d194      	bne.n	800329c <HAL_TIM_OC_Start_DMA+0x5c>
 8003372:	e003      	b.n	800337c <HAL_TIM_OC_Start_DMA+0x13c>
 8003374:	2d04      	cmp	r5, #4
 8003376:	d113      	bne.n	80033a0 <HAL_TIM_OC_Start_DMA+0x160>
 8003378:	f884 203f 	strb.w	r2, [r4, #63]	; 0x3f
 800337c:	6aa0      	ldr	r0, [r4, #40]	; 0x28
 800337e:	4a32      	ldr	r2, [pc, #200]	; (8003448 <HAL_TIM_OC_Start_DMA+0x208>)
 8003380:	62c2      	str	r2, [r0, #44]	; 0x2c
 8003382:	4a32      	ldr	r2, [pc, #200]	; (800344c <HAL_TIM_OC_Start_DMA+0x20c>)
 8003384:	6302      	str	r2, [r0, #48]	; 0x30
 8003386:	4a32      	ldr	r2, [pc, #200]	; (8003450 <HAL_TIM_OC_Start_DMA+0x210>)
 8003388:	6342      	str	r2, [r0, #52]	; 0x34
 800338a:	6822      	ldr	r2, [r4, #0]
 800338c:	3238      	adds	r2, #56	; 0x38
 800338e:	f7fd fd17 	bl	8000dc0 <HAL_DMA_Start_IT>
 8003392:	2800      	cmp	r0, #0
 8003394:	d182      	bne.n	800329c <HAL_TIM_OC_Start_DMA+0x5c>
 8003396:	6822      	ldr	r2, [r4, #0]
 8003398:	68d3      	ldr	r3, [r2, #12]
 800339a:	f443 6380 	orr.w	r3, r3, #1024	; 0x400
 800339e:	e7ab      	b.n	80032f8 <HAL_TIM_OC_Start_DMA+0xb8>
 80033a0:	2d08      	cmp	r5, #8
 80033a2:	d114      	bne.n	80033ce <HAL_TIM_OC_Start_DMA+0x18e>
 80033a4:	f884 2040 	strb.w	r2, [r4, #64]	; 0x40
 80033a8:	6ae0      	ldr	r0, [r4, #44]	; 0x2c
 80033aa:	4a27      	ldr	r2, [pc, #156]	; (8003448 <HAL_TIM_OC_Start_DMA+0x208>)
 80033ac:	62c2      	str	r2, [r0, #44]	; 0x2c
 80033ae:	4a27      	ldr	r2, [pc, #156]	; (800344c <HAL_TIM_OC_Start_DMA+0x20c>)
 80033b0:	6302      	str	r2, [r0, #48]	; 0x30
 80033b2:	4a27      	ldr	r2, [pc, #156]	; (8003450 <HAL_TIM_OC_Start_DMA+0x210>)
 80033b4:	6342      	str	r2, [r0, #52]	; 0x34
 80033b6:	6822      	ldr	r2, [r4, #0]
 80033b8:	323c      	adds	r2, #60	; 0x3c
 80033ba:	f7fd fd01 	bl	8000dc0 <HAL_DMA_Start_IT>
 80033be:	2800      	cmp	r0, #0
 80033c0:	f47f af6c 	bne.w	800329c <HAL_TIM_OC_Start_DMA+0x5c>
 80033c4:	6822      	ldr	r2, [r4, #0]
 80033c6:	68d3      	ldr	r3, [r2, #12]
 80033c8:	f443 6300 	orr.w	r3, r3, #2048	; 0x800
 80033cc:	e794      	b.n	80032f8 <HAL_TIM_OC_Start_DMA+0xb8>
 80033ce:	2d0c      	cmp	r5, #12
 80033d0:	d114      	bne.n	80033fc <HAL_TIM_OC_Start_DMA+0x1bc>
 80033d2:	f884 2041 	strb.w	r2, [r4, #65]	; 0x41
 80033d6:	6b20      	ldr	r0, [r4, #48]	; 0x30
 80033d8:	4a1b      	ldr	r2, [pc, #108]	; (8003448 <HAL_TIM_OC_Start_DMA+0x208>)
 80033da:	62c2      	str	r2, [r0, #44]	; 0x2c
 80033dc:	4a1b      	ldr	r2, [pc, #108]	; (800344c <HAL_TIM_OC_Start_DMA+0x20c>)
 80033de:	6302      	str	r2, [r0, #48]	; 0x30
 80033e0:	4a1b      	ldr	r2, [pc, #108]	; (8003450 <HAL_TIM_OC_Start_DMA+0x210>)
 80033e2:	6342      	str	r2, [r0, #52]	; 0x34
 80033e4:	6822      	ldr	r2, [r4, #0]
 80033e6:	3240      	adds	r2, #64	; 0x40
 80033e8:	f7fd fcea 	bl	8000dc0 <HAL_DMA_Start_IT>
 80033ec:	2800      	cmp	r0, #0
 80033ee:	f47f af55 	bne.w	800329c <HAL_TIM_OC_Start_DMA+0x5c>
 80033f2:	6822      	ldr	r2, [r4, #0]
 80033f4:	68d3      	ldr	r3, [r2, #12]
 80033f6:	f443 5380 	orr.w	r3, r3, #4096	; 0x1000
 80033fa:	e77d      	b.n	80032f8 <HAL_TIM_OC_Start_DMA+0xb8>
 80033fc:	2d10      	cmp	r5, #16
 80033fe:	d1ab      	bne.n	8003358 <HAL_TIM_OC_Start_DMA+0x118>
 8003400:	f884 2042 	strb.w	r2, [r4, #66]	; 0x42
 8003404:	e74a      	b.n	800329c <HAL_TIM_OC_Start_DMA+0x5c>
 8003406:	6c5a      	ldr	r2, [r3, #68]	; 0x44
 8003408:	f442 4200 	orr.w	r2, r2, #32768	; 0x8000
 800340c:	645a      	str	r2, [r3, #68]	; 0x44
 800340e:	4a11      	ldr	r2, [pc, #68]	; (8003454 <HAL_TIM_OC_Start_DMA+0x214>)
 8003410:	4293      	cmp	r3, r2
 8003412:	d18b      	bne.n	800332c <HAL_TIM_OC_Start_DMA+0xec>
 8003414:	e78d      	b.n	8003332 <HAL_TIM_OC_Start_DMA+0xf2>
 8003416:	4a11      	ldr	r2, [pc, #68]	; (800345c <HAL_TIM_OC_Start_DMA+0x21c>)
 8003418:	4293      	cmp	r3, r2
 800341a:	d08a      	beq.n	8003332 <HAL_TIM_OC_Start_DMA+0xf2>
 800341c:	f502 6280 	add.w	r2, r2, #1024	; 0x400
 8003420:	4293      	cmp	r3, r2
 8003422:	d086      	beq.n	8003332 <HAL_TIM_OC_Start_DMA+0xf2>
 8003424:	f502 3296 	add.w	r2, r2, #76800	; 0x12c00
 8003428:	4293      	cmp	r3, r2
 800342a:	d082      	beq.n	8003332 <HAL_TIM_OC_Start_DMA+0xf2>
 800342c:	f502 6240 	add.w	r2, r2, #3072	; 0xc00
 8003430:	4293      	cmp	r3, r2
 8003432:	f43f af7e 	beq.w	8003332 <HAL_TIM_OC_Start_DMA+0xf2>
 8003436:	681a      	ldr	r2, [r3, #0]
 8003438:	f042 0201 	orr.w	r2, r2, #1
 800343c:	601a      	str	r2, [r3, #0]
 800343e:	e77e      	b.n	800333e <HAL_TIM_OC_Start_DMA+0xfe>
 8003440:	f5b2 3f80 	cmp.w	r2, #65536	; 0x10000
 8003444:	d1f7      	bne.n	8003436 <HAL_TIM_OC_Start_DMA+0x1f6>
 8003446:	e77a      	b.n	800333e <HAL_TIM_OC_Start_DMA+0xfe>
 8003448:	08002a8d 	.word	0x08002a8d
 800344c:	08002af9 	.word	0x08002af9
 8003450:	08002d03 	.word	0x08002d03
 8003454:	40012c00 	.word	0x40012c00
 8003458:	00010007 	.word	0x00010007
 800345c:	40000400 	.word	0x40000400

08003460 <HAL_TIM_PWM_Start_DMA>:
 8003460:	f7ff beee 	b.w	8003240 <HAL_TIM_OC_Start_DMA>

08003464 <HAL_TIMEx_MasterConfigSynchronization>:
 8003464:	b530      	push	{r4, r5, lr}
 8003466:	f890 303c 	ldrb.w	r3, [r0, #60]	; 0x3c
 800346a:	2b01      	cmp	r3, #1
 800346c:	f04f 0302 	mov.w	r3, #2
 8003470:	d037      	beq.n	80034e2 <HAL_TIMEx_MasterConfigSynchronization+0x7e>
 8003472:	f880 303d 	strb.w	r3, [r0, #61]	; 0x3d
 8003476:	4d1c      	ldr	r5, [pc, #112]	; (80034e8 <HAL_TIMEx_MasterConfigSynchronization+0x84>)
 8003478:	6803      	ldr	r3, [r0, #0]
 800347a:	42ab      	cmp	r3, r5
 800347c:	685a      	ldr	r2, [r3, #4]
 800347e:	689c      	ldr	r4, [r3, #8]
 8003480:	d003      	beq.n	800348a <HAL_TIMEx_MasterConfigSynchronization+0x26>
 8003482:	f505 6500 	add.w	r5, r5, #2048	; 0x800
 8003486:	42ab      	cmp	r3, r5
 8003488:	d103      	bne.n	8003492 <HAL_TIMEx_MasterConfigSynchronization+0x2e>
 800348a:	684d      	ldr	r5, [r1, #4]
 800348c:	f422 0270 	bic.w	r2, r2, #15728640	; 0xf00000
 8003490:	432a      	orrs	r2, r5
 8003492:	680d      	ldr	r5, [r1, #0]
 8003494:	f022 7200 	bic.w	r2, r2, #33554432	; 0x2000000
 8003498:	f022 0270 	bic.w	r2, r2, #112	; 0x70
 800349c:	432a      	orrs	r2, r5
 800349e:	605a      	str	r2, [r3, #4]
 80034a0:	4a11      	ldr	r2, [pc, #68]	; (80034e8 <HAL_TIMEx_MasterConfigSynchronization+0x84>)
 80034a2:	4293      	cmp	r3, r2
 80034a4:	d012      	beq.n	80034cc <HAL_TIMEx_MasterConfigSynchronization+0x68>
 80034a6:	f1b3 4f80 	cmp.w	r3, #1073741824	; 0x40000000
 80034aa:	d00f      	beq.n	80034cc <HAL_TIMEx_MasterConfigSynchronization+0x68>
 80034ac:	f5a2 3294 	sub.w	r2, r2, #75776	; 0x12800
 80034b0:	4293      	cmp	r3, r2
 80034b2:	d00b      	beq.n	80034cc <HAL_TIMEx_MasterConfigSynchronization+0x68>
 80034b4:	f502 6280 	add.w	r2, r2, #1024	; 0x400
 80034b8:	4293      	cmp	r3, r2
 80034ba:	d007      	beq.n	80034cc <HAL_TIMEx_MasterConfigSynchronization+0x68>
 80034bc:	f502 3296 	add.w	r2, r2, #76800	; 0x12c00
 80034c0:	4293      	cmp	r3, r2
 80034c2:	d003      	beq.n	80034cc <HAL_TIMEx_MasterConfigSynchronization+0x68>
 80034c4:	f502 6240 	add.w	r2, r2, #3072	; 0xc00
 80034c8:	4293      	cmp	r3, r2
 80034ca:	d104      	bne.n	80034d6 <HAL_TIMEx_MasterConfigSynchronization+0x72>
 80034cc:	6889      	ldr	r1, [r1, #8]
 80034ce:	f024 0280 	bic.w	r2, r4, #128	; 0x80
 80034d2:	430a      	orrs	r2, r1
 80034d4:	609a      	str	r2, [r3, #8]
 80034d6:	2301      	movs	r3, #1
 80034d8:	f880 303d 	strb.w	r3, [r0, #61]	; 0x3d
 80034dc:	2300      	movs	r3, #0
 80034de:	f880 303c 	strb.w	r3, [r0, #60]	; 0x3c
 80034e2:	4618      	mov	r0, r3
 80034e4:	bd30      	pop	{r4, r5, pc}
 80034e6:	bf00      	nop
 80034e8:	40012c00 	.word	0x40012c00

080034ec <HAL_TIMEx_ConfigBreakDeadTime>:
 80034ec:	b530      	push	{r4, r5, lr}
 80034ee:	f890 303c 	ldrb.w	r3, [r0, #60]	; 0x3c
 80034f2:	2b01      	cmp	r3, #1
 80034f4:	d04c      	beq.n	8003590 <HAL_TIMEx_ConfigBreakDeadTime+0xa4>
 80034f6:	68cb      	ldr	r3, [r1, #12]
 80034f8:	688a      	ldr	r2, [r1, #8]
 80034fa:	4c26      	ldr	r4, [pc, #152]	; (8003594 <HAL_TIMEx_ConfigBreakDeadTime+0xa8>)
 80034fc:	f423 7340 	bic.w	r3, r3, #768	; 0x300
 8003500:	4313      	orrs	r3, r2
 8003502:	684a      	ldr	r2, [r1, #4]
 8003504:	f423 6380 	bic.w	r3, r3, #1024	; 0x400
 8003508:	4313      	orrs	r3, r2
 800350a:	680a      	ldr	r2, [r1, #0]
 800350c:	f423 6300 	bic.w	r3, r3, #2048	; 0x800
 8003510:	4313      	orrs	r3, r2
 8003512:	690a      	ldr	r2, [r1, #16]
 8003514:	f423 5380 	bic.w	r3, r3, #4096	; 0x1000
 8003518:	4313      	orrs	r3, r2
 800351a:	694a      	ldr	r2, [r1, #20]
 800351c:	f423 5300 	bic.w	r3, r3, #8192	; 0x2000
 8003520:	4313      	orrs	r3, r2
 8003522:	6b0a      	ldr	r2, [r1, #48]	; 0x30
 8003524:	f423 4380 	bic.w	r3, r3, #16384	; 0x4000
 8003528:	4313      	orrs	r3, r2
 800352a:	698a      	ldr	r2, [r1, #24]
 800352c:	f423 2370 	bic.w	r3, r3, #983040	; 0xf0000
 8003530:	ea43 4302 	orr.w	r3, r3, r2, lsl #16
 8003534:	6802      	ldr	r2, [r0, #0]
 8003536:	42a2      	cmp	r2, r4
 8003538:	d002      	beq.n	8003540 <HAL_TIMEx_ConfigBreakDeadTime+0x54>
 800353a:	4d17      	ldr	r5, [pc, #92]	; (8003598 <HAL_TIMEx_ConfigBreakDeadTime+0xac>)
 800353c:	42aa      	cmp	r2, r5
 800353e:	d121      	bne.n	8003584 <HAL_TIMEx_ConfigBreakDeadTime+0x98>
 8003540:	69cd      	ldr	r5, [r1, #28]
 8003542:	f023 5380 	bic.w	r3, r3, #268435456	; 0x10000000
 8003546:	42a2      	cmp	r2, r4
 8003548:	ea43 0305 	orr.w	r3, r3, r5
 800354c:	d002      	beq.n	8003554 <HAL_TIMEx_ConfigBreakDeadTime+0x68>
 800354e:	4c12      	ldr	r4, [pc, #72]	; (8003598 <HAL_TIMEx_ConfigBreakDeadTime+0xac>)
 8003550:	42a2      	cmp	r2, r4
 8003552:	d117      	bne.n	8003584 <HAL_TIMEx_ConfigBreakDeadTime+0x98>
 8003554:	6a8c      	ldr	r4, [r1, #40]	; 0x28
 8003556:	f423 0370 	bic.w	r3, r3, #15728640	; 0xf00000
 800355a:	ea43 5304 	orr.w	r3, r3, r4, lsl #20
 800355e:	6a0c      	ldr	r4, [r1, #32]
 8003560:	f023 7380 	bic.w	r3, r3, #16777216	; 0x1000000
 8003564:	4323      	orrs	r3, r4
 8003566:	6a4c      	ldr	r4, [r1, #36]	; 0x24
 8003568:	f023 7300 	bic.w	r3, r3, #33554432	; 0x2000000
 800356c:	4323      	orrs	r3, r4
 800356e:	4c09      	ldr	r4, [pc, #36]	; (8003594 <HAL_TIMEx_ConfigBreakDeadTime+0xa8>)
 8003570:	42a2      	cmp	r2, r4
 8003572:	d003      	beq.n	800357c <HAL_TIMEx_ConfigBreakDeadTime+0x90>
 8003574:	f504 6400 	add.w	r4, r4, #2048	; 0x800
 8003578:	42a2      	cmp	r2, r4
 800357a:	d103      	bne.n	8003584 <HAL_TIMEx_ConfigBreakDeadTime+0x98>
 800357c:	6ac9      	ldr	r1, [r1, #44]	; 0x2c
 800357e:	f023 5300 	bic.w	r3, r3, #536870912	; 0x20000000
 8003582:	430b      	orrs	r3, r1
 8003584:	6453      	str	r3, [r2, #68]	; 0x44
 8003586:	2300      	movs	r3, #0
 8003588:	f880 303c 	strb.w	r3, [r0, #60]	; 0x3c
 800358c:	4618      	mov	r0, r3
 800358e:	bd30      	pop	{r4, r5, pc}
 8003590:	2002      	movs	r0, #2
 8003592:	e7fc      	b.n	800358e <HAL_TIMEx_ConfigBreakDeadTime+0xa2>
 8003594:	40012c00 	.word	0x40012c00
 8003598:	40013400 	.word	0x40013400

0800359c <HAL_TIMEx_CommutCallback>:
 800359c:	4770      	bx	lr

0800359e <HAL_TIMEx_BreakCallback>:
 800359e:	4770      	bx	lr

080035a0 <HAL_TIMEx_Break2Callback>:
 80035a0:	4770      	bx	lr

080035a2 <HAL_TIMEx_EncoderIndexCallback>:
 80035a2:	4770      	bx	lr

080035a4 <HAL_TIMEx_DirectionChangeCallback>:
 80035a4:	4770      	bx	lr

080035a6 <HAL_TIMEx_IndexErrorCallback>:
 80035a6:	4770      	bx	lr

080035a8 <HAL_TIMEx_TransitionErrorCallback>:
 80035a8:	4770      	bx	lr

080035aa <USB_EnableGlobalInt>:
 80035aa:	2300      	movs	r3, #0
 80035ac:	f64b 7280 	movw	r2, #49024	; 0xbf80
 80035b0:	f8a0 3044 	strh.w	r3, [r0, #68]	; 0x44
 80035b4:	f8a0 2040 	strh.w	r2, [r0, #64]	; 0x40
 80035b8:	4618      	mov	r0, r3
 80035ba:	4770      	bx	lr

080035bc <USB_DisableGlobalInt>:
 80035bc:	f8b0 3040 	ldrh.w	r3, [r0, #64]	; 0x40
 80035c0:	f423 537e 	bic.w	r3, r3, #16256	; 0x3f80
 80035c4:	045b      	lsls	r3, r3, #17
 80035c6:	0c5b      	lsrs	r3, r3, #17
 80035c8:	f8a0 3040 	strh.w	r3, [r0, #64]	; 0x40
 80035cc:	2000      	movs	r0, #0
 80035ce:	4770      	bx	lr

080035d0 <USB_DevInit>:
 80035d0:	b084      	sub	sp, #16
 80035d2:	b510      	push	{r4, lr}
 80035d4:	ac03      	add	r4, sp, #12
 80035d6:	e884 000e 	stmia.w	r4, {r1, r2, r3}
 80035da:	e8bd 4010 	ldmia.w	sp!, {r4, lr}
 80035de:	2301      	movs	r3, #1
 80035e0:	f8a0 3040 	strh.w	r3, [r0, #64]	; 0x40
 80035e4:	2300      	movs	r3, #0
 80035e6:	f8a0 3040 	strh.w	r3, [r0, #64]	; 0x40
 80035ea:	b004      	add	sp, #16
 80035ec:	f8a0 3044 	strh.w	r3, [r0, #68]	; 0x44
 80035f0:	f8a0 3050 	strh.w	r3, [r0, #80]	; 0x50
 80035f4:	4618      	mov	r0, r3
 80035f6:	4770      	bx	lr

080035f8 <USB_ActivateEndpoint>:
 80035f8:	b5f0      	push	{r4, r5, r6, r7, lr}
 80035fa:	f891 e000 	ldrb.w	lr, [r1]
 80035fe:	78cd      	ldrb	r5, [r1, #3]
 8003600:	f830 202e 	ldrh.w	r2, [r0, lr, lsl #2]
 8003604:	f422 42ec 	bic.w	r2, r2, #30208	; 0x7600
 8003608:	f022 0270 	bic.w	r2, r2, #112	; 0x70
 800360c:	0412      	lsls	r2, r2, #16
 800360e:	4673      	mov	r3, lr
 8003610:	0c12      	lsrs	r2, r2, #16
 8003612:	2d03      	cmp	r5, #3
 8003614:	d84c      	bhi.n	80036b0 <USB_ActivateEndpoint+0xb8>
 8003616:	e8df f005 	tbb	[pc, r5]
 800361a:	4802      	.short	0x4802
 800361c:	4446      	.short	0x4446
 800361e:	f442 7200 	orr.w	r2, r2, #512	; 0x200
 8003622:	462c      	mov	r4, r5
 8003624:	f248 0780 	movw	r7, #32896	; 0x8080
 8003628:	433a      	orrs	r2, r7
 800362a:	f820 2023 	strh.w	r2, [r0, r3, lsl #2]
 800362e:	f830 6023 	ldrh.w	r6, [r0, r3, lsl #2]
 8003632:	f8df c26c 	ldr.w	ip, [pc, #620]	; 80038a0 <USB_ActivateEndpoint+0x2a8>
 8003636:	b2b6      	uxth	r6, r6
 8003638:	ea06 060c 	and.w	r6, r6, ip
 800363c:	ea46 060e 	orr.w	r6, r6, lr
 8003640:	433e      	orrs	r6, r7
 8003642:	f820 6023 	strh.w	r6, [r0, r3, lsl #2]
 8003646:	7b0a      	ldrb	r2, [r1, #12]
 8003648:	eb00 0ece 	add.w	lr, r0, lr, lsl #3
 800364c:	2a00      	cmp	r2, #0
 800364e:	d17c      	bne.n	800374a <USB_ActivateEndpoint+0x152>
 8003650:	88ca      	ldrh	r2, [r1, #6]
 8003652:	784e      	ldrb	r6, [r1, #1]
 8003654:	0852      	lsrs	r2, r2, #1
 8003656:	0052      	lsls	r2, r2, #1
 8003658:	b366      	cbz	r6, 80036b4 <USB_ActivateEndpoint+0xbc>
 800365a:	f8b0 1050 	ldrh.w	r1, [r0, #80]	; 0x50
 800365e:	fa1e fe81 	uxtah	lr, lr, r1
 8003662:	f8ae 2400 	strh.w	r2, [lr, #1024]	; 0x400
 8003666:	f830 2023 	ldrh.w	r2, [r0, r3, lsl #2]
 800366a:	0657      	lsls	r7, r2, #25
 800366c:	d50a      	bpl.n	8003684 <USB_ActivateEndpoint+0x8c>
 800366e:	f830 2023 	ldrh.w	r2, [r0, r3, lsl #2]
 8003672:	b292      	uxth	r2, r2
 8003674:	ea02 020c 	and.w	r2, r2, ip
 8003678:	f442 4200 	orr.w	r2, r2, #32768	; 0x8000
 800367c:	f042 02c0 	orr.w	r2, r2, #192	; 0xc0
 8003680:	f820 2023 	strh.w	r2, [r0, r3, lsl #2]
 8003684:	f830 2023 	ldrh.w	r2, [r0, r3, lsl #2]
 8003688:	4983      	ldr	r1, [pc, #524]	; (8003898 <USB_ActivateEndpoint+0x2a0>)
 800368a:	b292      	uxth	r2, r2
 800368c:	2d01      	cmp	r5, #1
 800368e:	ea02 0201 	and.w	r2, r2, r1
 8003692:	d001      	beq.n	8003698 <USB_ActivateEndpoint+0xa0>
 8003694:	f082 0220 	eor.w	r2, r2, #32
 8003698:	f442 4200 	orr.w	r2, r2, #32768	; 0x8000
 800369c:	f042 0280 	orr.w	r2, r2, #128	; 0x80
 80036a0:	e0b1      	b.n	8003806 <USB_ActivateEndpoint+0x20e>
 80036a2:	f442 62c0 	orr.w	r2, r2, #1536	; 0x600
 80036a6:	2400      	movs	r4, #0
 80036a8:	e7bc      	b.n	8003624 <USB_ActivateEndpoint+0x2c>
 80036aa:	f442 6280 	orr.w	r2, r2, #1024	; 0x400
 80036ae:	e7fa      	b.n	80036a6 <USB_ActivateEndpoint+0xae>
 80036b0:	2401      	movs	r4, #1
 80036b2:	e7b7      	b.n	8003624 <USB_ActivateEndpoint+0x2c>
 80036b4:	f8b0 5050 	ldrh.w	r5, [r0, #80]	; 0x50
 80036b8:	6909      	ldr	r1, [r1, #16]
 80036ba:	fa1e f585 	uxtah	r5, lr, r5
 80036be:	293e      	cmp	r1, #62	; 0x3e
 80036c0:	f8a5 2404 	strh.w	r2, [r5, #1028]	; 0x404
 80036c4:	f8b0 2050 	ldrh.w	r2, [r0, #80]	; 0x50
 80036c8:	fa1e fe82 	uxtah	lr, lr, r2
 80036cc:	d927      	bls.n	800371e <USB_ActivateEndpoint+0x126>
 80036ce:	094d      	lsrs	r5, r1, #5
 80036d0:	4a72      	ldr	r2, [pc, #456]	; (800389c <USB_ActivateEndpoint+0x2a4>)
 80036d2:	06ce      	lsls	r6, r1, #27
 80036d4:	bf08      	it	eq
 80036d6:	f105 35ff 	addeq.w	r5, r5, #4294967295
 80036da:	ea42 2285 	orr.w	r2, r2, r5, lsl #10
 80036de:	b292      	uxth	r2, r2
 80036e0:	f8ae 2406 	strh.w	r2, [lr, #1030]	; 0x406
 80036e4:	f830 2023 	ldrh.w	r2, [r0, r3, lsl #2]
 80036e8:	0457      	lsls	r7, r2, #17
 80036ea:	d50d      	bpl.n	8003708 <USB_ActivateEndpoint+0x110>
 80036ec:	f830 2023 	ldrh.w	r2, [r0, r3, lsl #2]
 80036f0:	f422 42e0 	bic.w	r2, r2, #28672	; 0x7000
 80036f4:	f022 0270 	bic.w	r2, r2, #112	; 0x70
 80036f8:	0412      	lsls	r2, r2, #16
 80036fa:	0c12      	lsrs	r2, r2, #16
 80036fc:	f442 4240 	orr.w	r2, r2, #49152	; 0xc000
 8003700:	f042 0280 	orr.w	r2, r2, #128	; 0x80
 8003704:	f820 2023 	strh.w	r2, [r0, r3, lsl #2]
 8003708:	f830 2023 	ldrh.w	r2, [r0, r3, lsl #2]
 800370c:	f422 4280 	bic.w	r2, r2, #16384	; 0x4000
 8003710:	f022 0270 	bic.w	r2, r2, #112	; 0x70
 8003714:	0412      	lsls	r2, r2, #16
 8003716:	0c12      	lsrs	r2, r2, #16
 8003718:	f482 5240 	eor.w	r2, r2, #12288	; 0x3000
 800371c:	e7bc      	b.n	8003698 <USB_ActivateEndpoint+0xa0>
 800371e:	b971      	cbnz	r1, 800373e <USB_ActivateEndpoint+0x146>
 8003720:	f8be 2406 	ldrh.w	r2, [lr, #1030]	; 0x406
 8003724:	f422 42f8 	bic.w	r2, r2, #31744	; 0x7c00
 8003728:	0412      	lsls	r2, r2, #16
 800372a:	0c12      	lsrs	r2, r2, #16
 800372c:	f8ae 2406 	strh.w	r2, [lr, #1030]	; 0x406
 8003730:	f8be 2406 	ldrh.w	r2, [lr, #1030]	; 0x406
 8003734:	ea6f 4242 	mvn.w	r2, r2, lsl #17
 8003738:	ea6f 4252 	mvn.w	r2, r2, lsr #17
 800373c:	e7cf      	b.n	80036de <USB_ActivateEndpoint+0xe6>
 800373e:	084a      	lsrs	r2, r1, #1
 8003740:	07c9      	lsls	r1, r1, #31
 8003742:	bf48      	it	mi
 8003744:	3201      	addmi	r2, #1
 8003746:	0292      	lsls	r2, r2, #10
 8003748:	e7c9      	b.n	80036de <USB_ActivateEndpoint+0xe6>
 800374a:	2d02      	cmp	r5, #2
 800374c:	f830 2023 	ldrh.w	r2, [r0, r3, lsl #2]
 8003750:	d15d      	bne.n	800380e <USB_ActivateEndpoint+0x216>
 8003752:	b292      	uxth	r2, r2
 8003754:	ea02 020c 	and.w	r2, r2, ip
 8003758:	f442 4201 	orr.w	r2, r2, #33024	; 0x8100
 800375c:	f042 0280 	orr.w	r2, r2, #128	; 0x80
 8003760:	f820 2023 	strh.w	r2, [r0, r3, lsl #2]
 8003764:	f8b0 6050 	ldrh.w	r6, [r0, #80]	; 0x50
 8003768:	890a      	ldrh	r2, [r1, #8]
 800376a:	fa1e f686 	uxtah	r6, lr, r6
 800376e:	0852      	lsrs	r2, r2, #1
 8003770:	0052      	lsls	r2, r2, #1
 8003772:	f8a6 2400 	strh.w	r2, [r6, #1024]	; 0x400
 8003776:	f8b0 2050 	ldrh.w	r2, [r0, #80]	; 0x50
 800377a:	fa1e fe82 	uxtah	lr, lr, r2
 800377e:	894a      	ldrh	r2, [r1, #10]
 8003780:	0852      	lsrs	r2, r2, #1
 8003782:	0052      	lsls	r2, r2, #1
 8003784:	f8ae 2404 	strh.w	r2, [lr, #1028]	; 0x404
 8003788:	784a      	ldrb	r2, [r1, #1]
 800378a:	2a00      	cmp	r2, #0
 800378c:	d147      	bne.n	800381e <USB_ActivateEndpoint+0x226>
 800378e:	f830 2023 	ldrh.w	r2, [r0, r3, lsl #2]
 8003792:	0456      	lsls	r6, r2, #17
 8003794:	d50d      	bpl.n	80037b2 <USB_ActivateEndpoint+0x1ba>
 8003796:	f830 2023 	ldrh.w	r2, [r0, r3, lsl #2]
 800379a:	f422 42e0 	bic.w	r2, r2, #28672	; 0x7000
 800379e:	f022 0270 	bic.w	r2, r2, #112	; 0x70
 80037a2:	0412      	lsls	r2, r2, #16
 80037a4:	0c12      	lsrs	r2, r2, #16
 80037a6:	f442 4240 	orr.w	r2, r2, #49152	; 0xc000
 80037aa:	f042 0280 	orr.w	r2, r2, #128	; 0x80
 80037ae:	f820 2023 	strh.w	r2, [r0, r3, lsl #2]
 80037b2:	f830 2023 	ldrh.w	r2, [r0, r3, lsl #2]
 80037b6:	0655      	lsls	r5, r2, #25
 80037b8:	d50d      	bpl.n	80037d6 <USB_ActivateEndpoint+0x1de>
 80037ba:	f830 2023 	ldrh.w	r2, [r0, r3, lsl #2]
 80037be:	f422 42e0 	bic.w	r2, r2, #28672	; 0x7000
 80037c2:	f022 0270 	bic.w	r2, r2, #112	; 0x70
 80037c6:	0412      	lsls	r2, r2, #16
 80037c8:	0c12      	lsrs	r2, r2, #16
 80037ca:	f442 4200 	orr.w	r2, r2, #32768	; 0x8000
 80037ce:	f042 02c0 	orr.w	r2, r2, #192	; 0xc0
 80037d2:	f820 2023 	strh.w	r2, [r0, r3, lsl #2]
 80037d6:	f830 2023 	ldrh.w	r2, [r0, r3, lsl #2]
 80037da:	f422 4280 	bic.w	r2, r2, #16384	; 0x4000
 80037de:	f022 0270 	bic.w	r2, r2, #112	; 0x70
 80037e2:	0412      	lsls	r2, r2, #16
 80037e4:	0c12      	lsrs	r2, r2, #16
 80037e6:	f248 0180 	movw	r1, #32896	; 0x8080
 80037ea:	f482 5240 	eor.w	r2, r2, #12288	; 0x3000
 80037ee:	430a      	orrs	r2, r1
 80037f0:	f820 2023 	strh.w	r2, [r0, r3, lsl #2]
 80037f4:	f830 2023 	ldrh.w	r2, [r0, r3, lsl #2]
 80037f8:	f422 42e0 	bic.w	r2, r2, #28672	; 0x7000
 80037fc:	f022 0240 	bic.w	r2, r2, #64	; 0x40
 8003800:	0412      	lsls	r2, r2, #16
 8003802:	0c12      	lsrs	r2, r2, #16
 8003804:	430a      	orrs	r2, r1
 8003806:	f820 2023 	strh.w	r2, [r0, r3, lsl #2]
 800380a:	4620      	mov	r0, r4
 800380c:	bdf0      	pop	{r4, r5, r6, r7, pc}
 800380e:	f422 42e2 	bic.w	r2, r2, #28928	; 0x7100
 8003812:	f022 0270 	bic.w	r2, r2, #112	; 0x70
 8003816:	0412      	lsls	r2, r2, #16
 8003818:	0c12      	lsrs	r2, r2, #16
 800381a:	433a      	orrs	r2, r7
 800381c:	e7a0      	b.n	8003760 <USB_ActivateEndpoint+0x168>
 800381e:	f830 2023 	ldrh.w	r2, [r0, r3, lsl #2]
 8003822:	0451      	lsls	r1, r2, #17
 8003824:	d50d      	bpl.n	8003842 <USB_ActivateEndpoint+0x24a>
 8003826:	f830 2023 	ldrh.w	r2, [r0, r3, lsl #2]
 800382a:	f422 42e0 	bic.w	r2, r2, #28672	; 0x7000
 800382e:	f022 0270 	bic.w	r2, r2, #112	; 0x70
 8003832:	0412      	lsls	r2, r2, #16
 8003834:	0c12      	lsrs	r2, r2, #16
 8003836:	f442 4240 	orr.w	r2, r2, #49152	; 0xc000
 800383a:	f042 0280 	orr.w	r2, r2, #128	; 0x80
 800383e:	f820 2023 	strh.w	r2, [r0, r3, lsl #2]
 8003842:	f830 2023 	ldrh.w	r2, [r0, r3, lsl #2]
 8003846:	0652      	lsls	r2, r2, #25
 8003848:	d50d      	bpl.n	8003866 <USB_ActivateEndpoint+0x26e>
 800384a:	f830 2023 	ldrh.w	r2, [r0, r3, lsl #2]
 800384e:	f422 42e0 	bic.w	r2, r2, #28672	; 0x7000
 8003852:	f022 0270 	bic.w	r2, r2, #112	; 0x70
 8003856:	0412      	lsls	r2, r2, #16
 8003858:	0c12      	lsrs	r2, r2, #16
 800385a:	f442 4200 	orr.w	r2, r2, #32768	; 0x8000
 800385e:	f042 02c0 	orr.w	r2, r2, #192	; 0xc0
 8003862:	f820 2023 	strh.w	r2, [r0, r3, lsl #2]
 8003866:	f830 2023 	ldrh.w	r2, [r0, r3, lsl #2]
 800386a:	490b      	ldr	r1, [pc, #44]	; (8003898 <USB_ActivateEndpoint+0x2a0>)
 800386c:	b292      	uxth	r2, r2
 800386e:	400a      	ands	r2, r1
 8003870:	2d01      	cmp	r5, #1
 8003872:	bf18      	it	ne
 8003874:	f082 0220 	eorne.w	r2, r2, #32
 8003878:	f442 4200 	orr.w	r2, r2, #32768	; 0x8000
 800387c:	f042 0280 	orr.w	r2, r2, #128	; 0x80
 8003880:	f820 2023 	strh.w	r2, [r0, r3, lsl #2]
 8003884:	f830 2023 	ldrh.w	r2, [r0, r3, lsl #2]
 8003888:	f422 4280 	bic.w	r2, r2, #16384	; 0x4000
 800388c:	f022 0270 	bic.w	r2, r2, #112	; 0x70
 8003890:	0412      	lsls	r2, r2, #16
 8003892:	0c12      	lsrs	r2, r2, #16
 8003894:	e700      	b.n	8003698 <USB_ActivateEndpoint+0xa0>
 8003896:	bf00      	nop
 8003898:	ffff8fbf 	.word	0xffff8fbf
 800389c:	ffff8000 	.word	0xffff8000
 80038a0:	ffff8f8f 	.word	0xffff8f8f

080038a4 <USB_DeactivateEndpoint>:
 80038a4:	784a      	ldrb	r2, [r1, #1]
 80038a6:	780b      	ldrb	r3, [r1, #0]
 80038a8:	7b09      	ldrb	r1, [r1, #12]
 80038aa:	bbd9      	cbnz	r1, 8003924 <USB_DeactivateEndpoint+0x80>
 80038ac:	b30a      	cbz	r2, 80038f2 <USB_DeactivateEndpoint+0x4e>
 80038ae:	f830 2023 	ldrh.w	r2, [r0, r3, lsl #2]
 80038b2:	0651      	lsls	r1, r2, #25
 80038b4:	d50d      	bpl.n	80038d2 <USB_DeactivateEndpoint+0x2e>
 80038b6:	f830 2023 	ldrh.w	r2, [r0, r3, lsl #2]
 80038ba:	f422 42e0 	bic.w	r2, r2, #28672	; 0x7000
 80038be:	f022 0270 	bic.w	r2, r2, #112	; 0x70
 80038c2:	0412      	lsls	r2, r2, #16
 80038c4:	0c12      	lsrs	r2, r2, #16
 80038c6:	f442 4200 	orr.w	r2, r2, #32768	; 0x8000
 80038ca:	f042 02c0 	orr.w	r2, r2, #192	; 0xc0
 80038ce:	f820 2023 	strh.w	r2, [r0, r3, lsl #2]
 80038d2:	f830 2023 	ldrh.w	r2, [r0, r3, lsl #2]
 80038d6:	f422 42e0 	bic.w	r2, r2, #28672	; 0x7000
 80038da:	f022 0240 	bic.w	r2, r2, #64	; 0x40
 80038de:	0412      	lsls	r2, r2, #16
 80038e0:	0c12      	lsrs	r2, r2, #16
 80038e2:	f442 4200 	orr.w	r2, r2, #32768	; 0x8000
 80038e6:	f042 0280 	orr.w	r2, r2, #128	; 0x80
 80038ea:	f820 2023 	strh.w	r2, [r0, r3, lsl #2]
 80038ee:	2000      	movs	r0, #0
 80038f0:	4770      	bx	lr
 80038f2:	f830 2023 	ldrh.w	r2, [r0, r3, lsl #2]
 80038f6:	0452      	lsls	r2, r2, #17
 80038f8:	d50d      	bpl.n	8003916 <USB_DeactivateEndpoint+0x72>
 80038fa:	f830 2023 	ldrh.w	r2, [r0, r3, lsl #2]
 80038fe:	f422 42e0 	bic.w	r2, r2, #28672	; 0x7000
 8003902:	f022 0270 	bic.w	r2, r2, #112	; 0x70
 8003906:	0412      	lsls	r2, r2, #16
 8003908:	0c12      	lsrs	r2, r2, #16
 800390a:	f442 4240 	orr.w	r2, r2, #49152	; 0xc000
 800390e:	f042 0280 	orr.w	r2, r2, #128	; 0x80
 8003912:	f820 2023 	strh.w	r2, [r0, r3, lsl #2]
 8003916:	f830 2023 	ldrh.w	r2, [r0, r3, lsl #2]
 800391a:	f422 4280 	bic.w	r2, r2, #16384	; 0x4000
 800391e:	f022 0270 	bic.w	r2, r2, #112	; 0x70
 8003922:	e7dc      	b.n	80038de <USB_DeactivateEndpoint+0x3a>
 8003924:	2a00      	cmp	r2, #0
 8003926:	d148      	bne.n	80039ba <USB_DeactivateEndpoint+0x116>
 8003928:	f830 2023 	ldrh.w	r2, [r0, r3, lsl #2]
 800392c:	0451      	lsls	r1, r2, #17
 800392e:	d50d      	bpl.n	800394c <USB_DeactivateEndpoint+0xa8>
 8003930:	f830 2023 	ldrh.w	r2, [r0, r3, lsl #2]
 8003934:	f422 42e0 	bic.w	r2, r2, #28672	; 0x7000
 8003938:	f022 0270 	bic.w	r2, r2, #112	; 0x70
 800393c:	0412      	lsls	r2, r2, #16
 800393e:	0c12      	lsrs	r2, r2, #16
 8003940:	f442 4240 	orr.w	r2, r2, #49152	; 0xc000
 8003944:	f042 0280 	orr.w	r2, r2, #128	; 0x80
 8003948:	f820 2023 	strh.w	r2, [r0, r3, lsl #2]
 800394c:	f830 2023 	ldrh.w	r2, [r0, r3, lsl #2]
 8003950:	0652      	lsls	r2, r2, #25
 8003952:	d50d      	bpl.n	8003970 <USB_DeactivateEndpoint+0xcc>
 8003954:	f830 2023 	ldrh.w	r2, [r0, r3, lsl #2]
 8003958:	f422 42e0 	bic.w	r2, r2, #28672	; 0x7000
 800395c:	f022 0270 	bic.w	r2, r2, #112	; 0x70
 8003960:	0412      	lsls	r2, r2, #16
 8003962:	0c12      	lsrs	r2, r2, #16
 8003964:	f442 4200 	orr.w	r2, r2, #32768	; 0x8000
 8003968:	f042 02c0 	orr.w	r2, r2, #192	; 0xc0
 800396c:	f820 2023 	strh.w	r2, [r0, r3, lsl #2]
 8003970:	f830 2023 	ldrh.w	r2, [r0, r3, lsl #2]
 8003974:	f422 42e0 	bic.w	r2, r2, #28672	; 0x7000
 8003978:	f022 0270 	bic.w	r2, r2, #112	; 0x70
 800397c:	0412      	lsls	r2, r2, #16
 800397e:	0c12      	lsrs	r2, r2, #16
 8003980:	f442 4200 	orr.w	r2, r2, #32768	; 0x8000
 8003984:	f042 02c0 	orr.w	r2, r2, #192	; 0xc0
 8003988:	f820 2023 	strh.w	r2, [r0, r3, lsl #2]
 800398c:	f830 2023 	ldrh.w	r2, [r0, r3, lsl #2]
 8003990:	f422 4280 	bic.w	r2, r2, #16384	; 0x4000
 8003994:	f022 0270 	bic.w	r2, r2, #112	; 0x70
 8003998:	0412      	lsls	r2, r2, #16
 800399a:	0c12      	lsrs	r2, r2, #16
 800399c:	f248 0180 	movw	r1, #32896	; 0x8080
 80039a0:	430a      	orrs	r2, r1
 80039a2:	f820 2023 	strh.w	r2, [r0, r3, lsl #2]
 80039a6:	f830 2023 	ldrh.w	r2, [r0, r3, lsl #2]
 80039aa:	f422 42e0 	bic.w	r2, r2, #28672	; 0x7000
 80039ae:	f022 0240 	bic.w	r2, r2, #64	; 0x40
 80039b2:	0412      	lsls	r2, r2, #16
 80039b4:	0c12      	lsrs	r2, r2, #16
 80039b6:	430a      	orrs	r2, r1
 80039b8:	e797      	b.n	80038ea <USB_DeactivateEndpoint+0x46>
 80039ba:	f830 2023 	ldrh.w	r2, [r0, r3, lsl #2]
 80039be:	0451      	lsls	r1, r2, #17
 80039c0:	d50d      	bpl.n	80039de <USB_DeactivateEndpoint+0x13a>
 80039c2:	f830 2023 	ldrh.w	r2, [r0, r3, lsl #2]
 80039c6:	f422 42e0 	bic.w	r2, r2, #28672	; 0x7000
 80039ca:	f022 0270 	bic.w	r2, r2, #112	; 0x70
 80039ce:	0412      	lsls	r2, r2, #16
 80039d0:	0c12      	lsrs	r2, r2, #16
 80039d2:	f442 4240 	orr.w	r2, r2, #49152	; 0xc000
 80039d6:	f042 0280 	orr.w	r2, r2, #128	; 0x80
 80039da:	f820 2023 	strh.w	r2, [r0, r3, lsl #2]
 80039de:	f830 2023 	ldrh.w	r2, [r0, r3, lsl #2]
 80039e2:	0652      	lsls	r2, r2, #25
 80039e4:	d50d      	bpl.n	8003a02 <USB_DeactivateEndpoint+0x15e>
 80039e6:	f830 2023 	ldrh.w	r2, [r0, r3, lsl #2]
 80039ea:	f422 42e0 	bic.w	r2, r2, #28672	; 0x7000
 80039ee:	f022 0270 	bic.w	r2, r2, #112	; 0x70
 80039f2:	0412      	lsls	r2, r2, #16
 80039f4:	0c12      	lsrs	r2, r2, #16
 80039f6:	f442 4200 	orr.w	r2, r2, #32768	; 0x8000
 80039fa:	f042 02c0 	orr.w	r2, r2, #192	; 0xc0
 80039fe:	f820 2023 	strh.w	r2, [r0, r3, lsl #2]
 8003a02:	f830 2023 	ldrh.w	r2, [r0, r3, lsl #2]
 8003a06:	f422 42e0 	bic.w	r2, r2, #28672	; 0x7000
 8003a0a:	f022 0270 	bic.w	r2, r2, #112	; 0x70
 8003a0e:	0412      	lsls	r2, r2, #16
 8003a10:	0c12      	lsrs	r2, r2, #16
 8003a12:	f442 4240 	orr.w	r2, r2, #49152	; 0xc000
 8003a16:	f042 0280 	orr.w	r2, r2, #128	; 0x80
 8003a1a:	f820 2023 	strh.w	r2, [r0, r3, lsl #2]
 8003a1e:	f830 2023 	ldrh.w	r2, [r0, r3, lsl #2]
 8003a22:	f422 42e0 	bic.w	r2, r2, #28672	; 0x7000
 8003a26:	f022 0240 	bic.w	r2, r2, #64	; 0x40
 8003a2a:	0412      	lsls	r2, r2, #16
 8003a2c:	0c12      	lsrs	r2, r2, #16
 8003a2e:	f248 0180 	movw	r1, #32896	; 0x8080
 8003a32:	430a      	orrs	r2, r1
 8003a34:	f820 2023 	strh.w	r2, [r0, r3, lsl #2]
 8003a38:	f830 2023 	ldrh.w	r2, [r0, r3, lsl #2]
 8003a3c:	f422 4280 	bic.w	r2, r2, #16384	; 0x4000
 8003a40:	f022 0270 	bic.w	r2, r2, #112	; 0x70
 8003a44:	e7b5      	b.n	80039b2 <USB_DeactivateEndpoint+0x10e>

08003a46 <USB_EPSetStall>:
 8003a46:	784b      	ldrb	r3, [r1, #1]
 8003a48:	780a      	ldrb	r2, [r1, #0]
 8003a4a:	b18b      	cbz	r3, 8003a70 <USB_EPSetStall+0x2a>
 8003a4c:	f830 3022 	ldrh.w	r3, [r0, r2, lsl #2]
 8003a50:	f423 43e0 	bic.w	r3, r3, #28672	; 0x7000
 8003a54:	f023 0340 	bic.w	r3, r3, #64	; 0x40
 8003a58:	041b      	lsls	r3, r3, #16
 8003a5a:	0c1b      	lsrs	r3, r3, #16
 8003a5c:	f083 0310 	eor.w	r3, r3, #16
 8003a60:	f443 4300 	orr.w	r3, r3, #32768	; 0x8000
 8003a64:	f043 0380 	orr.w	r3, r3, #128	; 0x80
 8003a68:	f820 3022 	strh.w	r3, [r0, r2, lsl #2]
 8003a6c:	2000      	movs	r0, #0
 8003a6e:	4770      	bx	lr
 8003a70:	f830 3022 	ldrh.w	r3, [r0, r2, lsl #2]
 8003a74:	f423 4380 	bic.w	r3, r3, #16384	; 0x4000
 8003a78:	f023 0370 	bic.w	r3, r3, #112	; 0x70
 8003a7c:	041b      	lsls	r3, r3, #16
 8003a7e:	0c1b      	lsrs	r3, r3, #16
 8003a80:	f483 5380 	eor.w	r3, r3, #4096	; 0x1000
 8003a84:	e7ec      	b.n	8003a60 <USB_EPSetStall+0x1a>

08003a86 <USB_EPClearStall>:
 8003a86:	7b0b      	ldrb	r3, [r1, #12]
 8003a88:	bb3b      	cbnz	r3, 8003ada <USB_EPClearStall+0x54>
 8003a8a:	784b      	ldrb	r3, [r1, #1]
 8003a8c:	780a      	ldrb	r2, [r1, #0]
 8003a8e:	b333      	cbz	r3, 8003ade <USB_EPClearStall+0x58>
 8003a90:	f830 3022 	ldrh.w	r3, [r0, r2, lsl #2]
 8003a94:	065b      	lsls	r3, r3, #25
 8003a96:	d50d      	bpl.n	8003ab4 <USB_EPClearStall+0x2e>
 8003a98:	f830 3022 	ldrh.w	r3, [r0, r2, lsl #2]
 8003a9c:	f423 43e0 	bic.w	r3, r3, #28672	; 0x7000
 8003aa0:	f023 0370 	bic.w	r3, r3, #112	; 0x70
 8003aa4:	041b      	lsls	r3, r3, #16
 8003aa6:	0c1b      	lsrs	r3, r3, #16
 8003aa8:	f443 4300 	orr.w	r3, r3, #32768	; 0x8000
 8003aac:	f043 03c0 	orr.w	r3, r3, #192	; 0xc0
 8003ab0:	f820 3022 	strh.w	r3, [r0, r2, lsl #2]
 8003ab4:	78cb      	ldrb	r3, [r1, #3]
 8003ab6:	2b01      	cmp	r3, #1
 8003ab8:	d00f      	beq.n	8003ada <USB_EPClearStall+0x54>
 8003aba:	f830 3022 	ldrh.w	r3, [r0, r2, lsl #2]
 8003abe:	f423 43e0 	bic.w	r3, r3, #28672	; 0x7000
 8003ac2:	f023 0340 	bic.w	r3, r3, #64	; 0x40
 8003ac6:	041b      	lsls	r3, r3, #16
 8003ac8:	0c1b      	lsrs	r3, r3, #16
 8003aca:	f083 0320 	eor.w	r3, r3, #32
 8003ace:	f443 4300 	orr.w	r3, r3, #32768	; 0x8000
 8003ad2:	f043 0380 	orr.w	r3, r3, #128	; 0x80
 8003ad6:	f820 3022 	strh.w	r3, [r0, r2, lsl #2]
 8003ada:	2000      	movs	r0, #0
 8003adc:	4770      	bx	lr
 8003ade:	f830 3022 	ldrh.w	r3, [r0, r2, lsl #2]
 8003ae2:	045b      	lsls	r3, r3, #17
 8003ae4:	d50d      	bpl.n	8003b02 <USB_EPClearStall+0x7c>
 8003ae6:	f830 3022 	ldrh.w	r3, [r0, r2, lsl #2]
 8003aea:	f423 43e0 	bic.w	r3, r3, #28672	; 0x7000
 8003aee:	f023 0370 	bic.w	r3, r3, #112	; 0x70
 8003af2:	041b      	lsls	r3, r3, #16
 8003af4:	0c1b      	lsrs	r3, r3, #16
 8003af6:	f443 4340 	orr.w	r3, r3, #49152	; 0xc000
 8003afa:	f043 0380 	orr.w	r3, r3, #128	; 0x80
 8003afe:	f820 3022 	strh.w	r3, [r0, r2, lsl #2]
 8003b02:	f830 3022 	ldrh.w	r3, [r0, r2, lsl #2]
 8003b06:	f423 4380 	bic.w	r3, r3, #16384	; 0x4000
 8003b0a:	f023 0370 	bic.w	r3, r3, #112	; 0x70
 8003b0e:	041b      	lsls	r3, r3, #16
 8003b10:	0c1b      	lsrs	r3, r3, #16
 8003b12:	f483 5340 	eor.w	r3, r3, #12288	; 0x3000
 8003b16:	e7da      	b.n	8003ace <USB_EPClearStall+0x48>

08003b18 <USB_SetDevAddress>:
 8003b18:	b911      	cbnz	r1, 8003b20 <USB_SetDevAddress+0x8>
 8003b1a:	2380      	movs	r3, #128	; 0x80
 8003b1c:	f8a0 304c 	strh.w	r3, [r0, #76]	; 0x4c
 8003b20:	2000      	movs	r0, #0
 8003b22:	4770      	bx	lr

08003b24 <USB_DevConnect>:
 8003b24:	f8b0 3058 	ldrh.w	r3, [r0, #88]	; 0x58
 8003b28:	ea6f 4343 	mvn.w	r3, r3, lsl #17
 8003b2c:	ea6f 4353 	mvn.w	r3, r3, lsr #17
 8003b30:	b29b      	uxth	r3, r3
 8003b32:	f8a0 3058 	strh.w	r3, [r0, #88]	; 0x58
 8003b36:	2000      	movs	r0, #0
 8003b38:	4770      	bx	lr

08003b3a <USB_ReadInterrupts>:
 8003b3a:	f8b0 0044 	ldrh.w	r0, [r0, #68]	; 0x44
 8003b3e:	b280      	uxth	r0, r0
 8003b40:	4770      	bx	lr

08003b42 <USB_WritePMA>:
 8003b42:	f502 6280 	add.w	r2, r2, #1024	; 0x400
 8003b46:	3301      	adds	r3, #1
 8003b48:	4410      	add	r0, r2
 8003b4a:	085b      	lsrs	r3, r3, #1
 8003b4c:	eb01 0343 	add.w	r3, r1, r3, lsl #1
 8003b50:	1a40      	subs	r0, r0, r1
 8003b52:	4299      	cmp	r1, r3
 8003b54:	d100      	bne.n	8003b58 <USB_WritePMA+0x16>
 8003b56:	4770      	bx	lr
 8003b58:	880a      	ldrh	r2, [r1, #0]
 8003b5a:	5242      	strh	r2, [r0, r1]
 8003b5c:	3102      	adds	r1, #2
 8003b5e:	e7f8      	b.n	8003b52 <USB_WritePMA+0x10>

08003b60 <USB_EPStartXfer>:
 8003b60:	e92d 41f0 	stmdb	sp!, {r4, r5, r6, r7, r8, lr}
 8003b64:	460c      	mov	r4, r1
 8003b66:	7849      	ldrb	r1, [r1, #1]
 8003b68:	7b22      	ldrb	r2, [r4, #12]
 8003b6a:	2901      	cmp	r1, #1
 8003b6c:	4605      	mov	r5, r0
 8003b6e:	f040 811f 	bne.w	8003db0 <USB_EPStartXfer+0x250>
 8003b72:	f8d4 c010 	ldr.w	ip, [r4, #16]
 8003b76:	69a6      	ldr	r6, [r4, #24]
 8003b78:	6961      	ldr	r1, [r4, #20]
 8003b7a:	4566      	cmp	r6, ip
 8003b7c:	bf28      	it	cs
 8003b7e:	4666      	movcs	r6, ip
 8003b80:	bb12      	cbnz	r2, 8003bc8 <USB_EPStartXfer+0x68>
 8003b82:	b2b6      	uxth	r6, r6
 8003b84:	88e2      	ldrh	r2, [r4, #6]
 8003b86:	4633      	mov	r3, r6
 8003b88:	f7ff ffdb 	bl	8003b42 <USB_WritePMA>
 8003b8c:	f8b5 2050 	ldrh.w	r2, [r5, #80]	; 0x50
 8003b90:	7823      	ldrb	r3, [r4, #0]
 8003b92:	f205 4102 	addw	r1, r5, #1026	; 0x402
 8003b96:	fa11 f282 	uxtah	r2, r1, r2
 8003b9a:	eb02 02c3 	add.w	r2, r2, r3, lsl #3
 8003b9e:	8016      	strh	r6, [r2, #0]
 8003ba0:	7822      	ldrb	r2, [r4, #0]
 8003ba2:	f835 3022 	ldrh.w	r3, [r5, r2, lsl #2]
 8003ba6:	f423 43e0 	bic.w	r3, r3, #28672	; 0x7000
 8003baa:	f023 0340 	bic.w	r3, r3, #64	; 0x40
 8003bae:	041b      	lsls	r3, r3, #16
 8003bb0:	0c1b      	lsrs	r3, r3, #16
 8003bb2:	f083 0330 	eor.w	r3, r3, #48	; 0x30
 8003bb6:	f443 4300 	orr.w	r3, r3, #32768	; 0x8000
 8003bba:	f043 0380 	orr.w	r3, r3, #128	; 0x80
 8003bbe:	f825 3022 	strh.w	r3, [r5, r2, lsl #2]
 8003bc2:	2000      	movs	r0, #0
 8003bc4:	e8bd 81f0 	ldmia.w	sp!, {r4, r5, r6, r7, r8, pc}
 8003bc8:	78e2      	ldrb	r2, [r4, #3]
 8003bca:	6a23      	ldr	r3, [r4, #32]
 8003bcc:	7827      	ldrb	r7, [r4, #0]
 8003bce:	2a02      	cmp	r2, #2
 8003bd0:	f040 80d7 	bne.w	8003d82 <USB_EPStartXfer+0x222>
 8003bd4:	459c      	cmp	ip, r3
 8003bd6:	f830 2027 	ldrh.w	r2, [r0, r7, lsl #2]
 8003bda:	f080 80bb 	bcs.w	8003d54 <USB_EPStartXfer+0x1f4>
 8003bde:	f422 42e0 	bic.w	r2, r2, #28672	; 0x7000
 8003be2:	f022 0270 	bic.w	r2, r2, #112	; 0x70
 8003be6:	0412      	lsls	r2, r2, #16
 8003be8:	0c12      	lsrs	r2, r2, #16
 8003bea:	f442 4201 	orr.w	r2, r2, #33024	; 0x8100
 8003bee:	f042 0280 	orr.w	r2, r2, #128	; 0x80
 8003bf2:	f820 2027 	strh.w	r2, [r0, r7, lsl #2]
 8003bf6:	f830 8027 	ldrh.w	r8, [r0, r7, lsl #2]
 8003bfa:	f8b0 2050 	ldrh.w	r2, [r0, #80]	; 0x50
 8003bfe:	1b9b      	subs	r3, r3, r6
 8003c00:	f018 0840 	ands.w	r8, r8, #64	; 0x40
 8003c04:	6223      	str	r3, [r4, #32]
 8003c06:	b2b3      	uxth	r3, r6
 8003c08:	d053      	beq.n	8003cb2 <USB_EPStartXfer+0x152>
 8003c0a:	f200 4c06 	addw	ip, r0, #1030	; 0x406
 8003c0e:	fa1c f282 	uxtah	r2, ip, r2
 8003c12:	f822 3037 	strh.w	r3, [r2, r7, lsl #3]
 8003c16:	8962      	ldrh	r2, [r4, #10]
 8003c18:	f7ff ff93 	bl	8003b42 <USB_WritePMA>
 8003c1c:	6a22      	ldr	r2, [r4, #32]
 8003c1e:	6923      	ldr	r3, [r4, #16]
 8003c20:	6961      	ldr	r1, [r4, #20]
 8003c22:	7860      	ldrb	r0, [r4, #1]
 8003c24:	429a      	cmp	r2, r3
 8003c26:	bf8c      	ite	hi
 8003c28:	1b93      	subhi	r3, r2, r6
 8003c2a:	2300      	movls	r3, #0
 8003c2c:	4431      	add	r1, r6
 8003c2e:	bf88      	it	hi
 8003c30:	4632      	movhi	r2, r6
 8003c32:	6223      	str	r3, [r4, #32]
 8003c34:	6161      	str	r1, [r4, #20]
 8003c36:	b293      	uxth	r3, r2
 8003c38:	bb70      	cbnz	r0, 8003c98 <USB_EPStartXfer+0x138>
 8003c3a:	f8b5 6050 	ldrh.w	r6, [r5, #80]	; 0x50
 8003c3e:	7820      	ldrb	r0, [r4, #0]
 8003c40:	f205 4702 	addw	r7, r5, #1026	; 0x402
 8003c44:	fa17 f686 	uxtah	r6, r7, r6
 8003c48:	2a3e      	cmp	r2, #62	; 0x3e
 8003c4a:	eb06 06c0 	add.w	r6, r6, r0, lsl #3
 8003c4e:	d90e      	bls.n	8003c6e <USB_EPStartXfer+0x10e>
 8003c50:	0950      	lsrs	r0, r2, #5
 8003c52:	06d7      	lsls	r7, r2, #27
 8003c54:	4aaa      	ldr	r2, [pc, #680]	; (8003f00 <USB_EPStartXfer+0x3a0>)
 8003c56:	bf08      	it	eq
 8003c58:	f100 30ff 	addeq.w	r0, r0, #4294967295
 8003c5c:	ea42 2280 	orr.w	r2, r2, r0, lsl #10
 8003c60:	b292      	uxth	r2, r2
 8003c62:	8032      	strh	r2, [r6, #0]
 8003c64:	8922      	ldrh	r2, [r4, #8]
 8003c66:	4628      	mov	r0, r5
 8003c68:	f7ff ff6b 	bl	8003b42 <USB_WritePMA>
 8003c6c:	e798      	b.n	8003ba0 <USB_EPStartXfer+0x40>
 8003c6e:	b95a      	cbnz	r2, 8003c88 <USB_EPStartXfer+0x128>
 8003c70:	8832      	ldrh	r2, [r6, #0]
 8003c72:	f422 42f8 	bic.w	r2, r2, #31744	; 0x7c00
 8003c76:	0412      	lsls	r2, r2, #16
 8003c78:	0c12      	lsrs	r2, r2, #16
 8003c7a:	8032      	strh	r2, [r6, #0]
 8003c7c:	8832      	ldrh	r2, [r6, #0]
 8003c7e:	ea6f 4242 	mvn.w	r2, r2, lsl #17
 8003c82:	ea6f 4252 	mvn.w	r2, r2, lsr #17
 8003c86:	e7eb      	b.n	8003c60 <USB_EPStartXfer+0x100>
 8003c88:	0850      	lsrs	r0, r2, #1
 8003c8a:	07d2      	lsls	r2, r2, #31
 8003c8c:	bf48      	it	mi
 8003c8e:	3001      	addmi	r0, #1
 8003c90:	0280      	lsls	r0, r0, #10
 8003c92:	b280      	uxth	r0, r0
 8003c94:	8030      	strh	r0, [r6, #0]
 8003c96:	e7e5      	b.n	8003c64 <USB_EPStartXfer+0x104>
 8003c98:	2801      	cmp	r0, #1
 8003c9a:	d1e3      	bne.n	8003c64 <USB_EPStartXfer+0x104>
 8003c9c:	f8b5 2050 	ldrh.w	r2, [r5, #80]	; 0x50
 8003ca0:	7820      	ldrb	r0, [r4, #0]
 8003ca2:	f205 4602 	addw	r6, r5, #1026	; 0x402
 8003ca6:	fa16 f282 	uxtah	r2, r6, r2
 8003caa:	eb02 02c0 	add.w	r2, r2, r0, lsl #3
 8003cae:	8013      	strh	r3, [r2, #0]
 8003cb0:	e7d8      	b.n	8003c64 <USB_EPStartXfer+0x104>
 8003cb2:	f200 4c02 	addw	ip, r0, #1026	; 0x402
 8003cb6:	fa1c f282 	uxtah	r2, ip, r2
 8003cba:	f822 3037 	strh.w	r3, [r2, r7, lsl #3]
 8003cbe:	8922      	ldrh	r2, [r4, #8]
 8003cc0:	f7ff ff3f 	bl	8003b42 <USB_WritePMA>
 8003cc4:	6a22      	ldr	r2, [r4, #32]
 8003cc6:	6923      	ldr	r3, [r4, #16]
 8003cc8:	6961      	ldr	r1, [r4, #20]
 8003cca:	7860      	ldrb	r0, [r4, #1]
 8003ccc:	429a      	cmp	r2, r3
 8003cce:	bf8c      	ite	hi
 8003cd0:	1b93      	subhi	r3, r2, r6
 8003cd2:	4643      	movls	r3, r8
 8003cd4:	4431      	add	r1, r6
 8003cd6:	bf88      	it	hi
 8003cd8:	4632      	movhi	r2, r6
 8003cda:	6223      	str	r3, [r4, #32]
 8003cdc:	6161      	str	r1, [r4, #20]
 8003cde:	b293      	uxth	r3, r2
 8003ce0:	bb58      	cbnz	r0, 8003d3a <USB_EPStartXfer+0x1da>
 8003ce2:	f8b5 6050 	ldrh.w	r6, [r5, #80]	; 0x50
 8003ce6:	7820      	ldrb	r0, [r4, #0]
 8003ce8:	f205 4706 	addw	r7, r5, #1030	; 0x406
 8003cec:	fa17 f686 	uxtah	r6, r7, r6
 8003cf0:	2a3e      	cmp	r2, #62	; 0x3e
 8003cf2:	eb06 06c0 	add.w	r6, r6, r0, lsl #3
 8003cf6:	d90b      	bls.n	8003d10 <USB_EPStartXfer+0x1b0>
 8003cf8:	0950      	lsrs	r0, r2, #5
 8003cfa:	06d7      	lsls	r7, r2, #27
 8003cfc:	4a80      	ldr	r2, [pc, #512]	; (8003f00 <USB_EPStartXfer+0x3a0>)
 8003cfe:	bf08      	it	eq
 8003d00:	f100 30ff 	addeq.w	r0, r0, #4294967295
 8003d04:	ea42 2280 	orr.w	r2, r2, r0, lsl #10
 8003d08:	b292      	uxth	r2, r2
 8003d0a:	8032      	strh	r2, [r6, #0]
 8003d0c:	8962      	ldrh	r2, [r4, #10]
 8003d0e:	e7aa      	b.n	8003c66 <USB_EPStartXfer+0x106>
 8003d10:	b95a      	cbnz	r2, 8003d2a <USB_EPStartXfer+0x1ca>
 8003d12:	8832      	ldrh	r2, [r6, #0]
 8003d14:	f422 42f8 	bic.w	r2, r2, #31744	; 0x7c00
 8003d18:	0412      	lsls	r2, r2, #16
 8003d1a:	0c12      	lsrs	r2, r2, #16
 8003d1c:	8032      	strh	r2, [r6, #0]
 8003d1e:	8832      	ldrh	r2, [r6, #0]
 8003d20:	ea6f 4242 	mvn.w	r2, r2, lsl #17
 8003d24:	ea6f 4252 	mvn.w	r2, r2, lsr #17
 8003d28:	e7ee      	b.n	8003d08 <USB_EPStartXfer+0x1a8>
 8003d2a:	0850      	lsrs	r0, r2, #1
 8003d2c:	07d2      	lsls	r2, r2, #31
 8003d2e:	bf48      	it	mi
 8003d30:	3001      	addmi	r0, #1
 8003d32:	0280      	lsls	r0, r0, #10
 8003d34:	b280      	uxth	r0, r0
 8003d36:	8030      	strh	r0, [r6, #0]
 8003d38:	e7e8      	b.n	8003d0c <USB_EPStartXfer+0x1ac>
 8003d3a:	2801      	cmp	r0, #1
 8003d3c:	d1e6      	bne.n	8003d0c <USB_EPStartXfer+0x1ac>
 8003d3e:	f8b5 2050 	ldrh.w	r2, [r5, #80]	; 0x50
 8003d42:	7820      	ldrb	r0, [r4, #0]
 8003d44:	f205 4606 	addw	r6, r5, #1030	; 0x406
 8003d48:	fa16 f282 	uxtah	r2, r6, r2
 8003d4c:	eb02 02c0 	add.w	r2, r2, r0, lsl #3
 8003d50:	8013      	strh	r3, [r2, #0]
 8003d52:	e7db      	b.n	8003d0c <USB_EPStartXfer+0x1ac>
 8003d54:	f422 42e2 	bic.w	r2, r2, #28928	; 0x7100
 8003d58:	f022 0270 	bic.w	r2, r2, #112	; 0x70
 8003d5c:	0412      	lsls	r2, r2, #16
 8003d5e:	0c12      	lsrs	r2, r2, #16
 8003d60:	f442 4200 	orr.w	r2, r2, #32768	; 0x8000
 8003d64:	f042 0280 	orr.w	r2, r2, #128	; 0x80
 8003d68:	f820 2027 	strh.w	r2, [r0, r7, lsl #2]
 8003d6c:	f8b0 2050 	ldrh.w	r2, [r0, #80]	; 0x50
 8003d70:	f200 4602 	addw	r6, r0, #1026	; 0x402
 8003d74:	fa16 f282 	uxtah	r2, r6, r2
 8003d78:	b29b      	uxth	r3, r3
 8003d7a:	f822 3037 	strh.w	r3, [r2, r7, lsl #3]
 8003d7e:	8922      	ldrh	r2, [r4, #8]
 8003d80:	e772      	b.n	8003c68 <USB_EPStartXfer+0x108>
 8003d82:	f830 2027 	ldrh.w	r2, [r0, r7, lsl #2]
 8003d86:	1b9b      	subs	r3, r3, r6
 8003d88:	f012 0f40 	tst.w	r2, #64	; 0x40
 8003d8c:	6223      	str	r3, [r4, #32]
 8003d8e:	f8b0 2050 	ldrh.w	r2, [r0, #80]	; 0x50
 8003d92:	b2b3      	uxth	r3, r6
 8003d94:	d007      	beq.n	8003da6 <USB_EPStartXfer+0x246>
 8003d96:	f200 4606 	addw	r6, r0, #1030	; 0x406
 8003d9a:	fa16 f282 	uxtah	r2, r6, r2
 8003d9e:	f822 3037 	strh.w	r3, [r2, r7, lsl #3]
 8003da2:	8962      	ldrh	r2, [r4, #10]
 8003da4:	e760      	b.n	8003c68 <USB_EPStartXfer+0x108>
 8003da6:	f200 4602 	addw	r6, r0, #1026	; 0x402
 8003daa:	fa16 f282 	uxtah	r2, r6, r2
 8003dae:	e7e4      	b.n	8003d7a <USB_EPStartXfer+0x21a>
 8003db0:	bb7a      	cbnz	r2, 8003e12 <USB_EPStartXfer+0x2b2>
 8003db2:	69a3      	ldr	r3, [r4, #24]
 8003db4:	6921      	ldr	r1, [r4, #16]
 8003db6:	428b      	cmp	r3, r1
 8003db8:	bf88      	it	hi
 8003dba:	1a5a      	subhi	r2, r3, r1
 8003dbc:	61a2      	str	r2, [r4, #24]
 8003dbe:	bf88      	it	hi
 8003dc0:	460b      	movhi	r3, r1
 8003dc2:	f8b5 1050 	ldrh.w	r1, [r5, #80]	; 0x50
 8003dc6:	7822      	ldrb	r2, [r4, #0]
 8003dc8:	f205 4006 	addw	r0, r5, #1030	; 0x406
 8003dcc:	fa10 f181 	uxtah	r1, r0, r1
 8003dd0:	2b3e      	cmp	r3, #62	; 0x3e
 8003dd2:	eb01 01c2 	add.w	r1, r1, r2, lsl #3
 8003dd6:	f200 80cb 	bhi.w	8003f70 <USB_EPStartXfer+0x410>
 8003dda:	2b00      	cmp	r3, #0
 8003ddc:	f040 80d1 	bne.w	8003f82 <USB_EPStartXfer+0x422>
 8003de0:	880b      	ldrh	r3, [r1, #0]
 8003de2:	f423 43f8 	bic.w	r3, r3, #31744	; 0x7c00
 8003de6:	041b      	lsls	r3, r3, #16
 8003de8:	0c1b      	lsrs	r3, r3, #16
 8003dea:	800b      	strh	r3, [r1, #0]
 8003dec:	880b      	ldrh	r3, [r1, #0]
 8003dee:	ea6f 4343 	mvn.w	r3, r3, lsl #17
 8003df2:	ea6f 4353 	mvn.w	r3, r3, lsr #17
 8003df6:	b29b      	uxth	r3, r3
 8003df8:	800b      	strh	r3, [r1, #0]
 8003dfa:	7822      	ldrb	r2, [r4, #0]
 8003dfc:	f835 3022 	ldrh.w	r3, [r5, r2, lsl #2]
 8003e00:	f423 4380 	bic.w	r3, r3, #16384	; 0x4000
 8003e04:	f023 0370 	bic.w	r3, r3, #112	; 0x70
 8003e08:	041b      	lsls	r3, r3, #16
 8003e0a:	0c1b      	lsrs	r3, r3, #16
 8003e0c:	f483 5340 	eor.w	r3, r3, #12288	; 0x3000
 8003e10:	e6d1      	b.n	8003bb6 <USB_EPStartXfer+0x56>
 8003e12:	78e3      	ldrb	r3, [r4, #3]
 8003e14:	2b02      	cmp	r3, #2
 8003e16:	d175      	bne.n	8003f04 <USB_EPStartXfer+0x3a4>
 8003e18:	2900      	cmp	r1, #0
 8003e1a:	d14b      	bne.n	8003eb4 <USB_EPStartXfer+0x354>
 8003e1c:	f8b0 1050 	ldrh.w	r1, [r0, #80]	; 0x50
 8003e20:	7823      	ldrb	r3, [r4, #0]
 8003e22:	f200 4202 	addw	r2, r0, #1026	; 0x402
 8003e26:	fa12 f181 	uxtah	r1, r2, r1
 8003e2a:	eb01 01c3 	add.w	r1, r1, r3, lsl #3
 8003e2e:	6923      	ldr	r3, [r4, #16]
 8003e30:	2b3e      	cmp	r3, #62	; 0x3e
 8003e32:	d922      	bls.n	8003e7a <USB_EPStartXfer+0x31a>
 8003e34:	0958      	lsrs	r0, r3, #5
 8003e36:	4a32      	ldr	r2, [pc, #200]	; (8003f00 <USB_EPStartXfer+0x3a0>)
 8003e38:	06df      	lsls	r7, r3, #27
 8003e3a:	bf08      	it	eq
 8003e3c:	f100 30ff 	addeq.w	r0, r0, #4294967295
 8003e40:	ea42 2280 	orr.w	r2, r2, r0, lsl #10
 8003e44:	b292      	uxth	r2, r2
 8003e46:	800a      	strh	r2, [r1, #0]
 8003e48:	f8b5 1050 	ldrh.w	r1, [r5, #80]	; 0x50
 8003e4c:	7822      	ldrb	r2, [r4, #0]
 8003e4e:	f205 4006 	addw	r0, r5, #1030	; 0x406
 8003e52:	fa10 f181 	uxtah	r1, r0, r1
 8003e56:	2b3e      	cmp	r3, #62	; 0x3e
 8003e58:	eb01 01c2 	add.w	r1, r1, r2, lsl #3
 8003e5c:	d820      	bhi.n	8003ea0 <USB_EPStartXfer+0x340>
 8003e5e:	2b00      	cmp	r3, #0
 8003e60:	d145      	bne.n	8003eee <USB_EPStartXfer+0x38e>
 8003e62:	880b      	ldrh	r3, [r1, #0]
 8003e64:	f423 43f8 	bic.w	r3, r3, #31744	; 0x7c00
 8003e68:	041b      	lsls	r3, r3, #16
 8003e6a:	0c1b      	lsrs	r3, r3, #16
 8003e6c:	800b      	strh	r3, [r1, #0]
 8003e6e:	880b      	ldrh	r3, [r1, #0]
 8003e70:	ea6f 4343 	mvn.w	r3, r3, lsl #17
 8003e74:	ea6f 4353 	mvn.w	r3, r3, lsr #17
 8003e78:	e01a      	b.n	8003eb0 <USB_EPStartXfer+0x350>
 8003e7a:	b95b      	cbnz	r3, 8003e94 <USB_EPStartXfer+0x334>
 8003e7c:	880a      	ldrh	r2, [r1, #0]
 8003e7e:	f422 42f8 	bic.w	r2, r2, #31744	; 0x7c00
 8003e82:	0412      	lsls	r2, r2, #16
 8003e84:	0c12      	lsrs	r2, r2, #16
 8003e86:	800a      	strh	r2, [r1, #0]
 8003e88:	880a      	ldrh	r2, [r1, #0]
 8003e8a:	ea6f 4242 	mvn.w	r2, r2, lsl #17
 8003e8e:	ea6f 4252 	mvn.w	r2, r2, lsr #17
 8003e92:	e7d7      	b.n	8003e44 <USB_EPStartXfer+0x2e4>
 8003e94:	085a      	lsrs	r2, r3, #1
 8003e96:	07de      	lsls	r6, r3, #31
 8003e98:	bf48      	it	mi
 8003e9a:	3201      	addmi	r2, #1
 8003e9c:	0292      	lsls	r2, r2, #10
 8003e9e:	e7d1      	b.n	8003e44 <USB_EPStartXfer+0x2e4>
 8003ea0:	095a      	lsrs	r2, r3, #5
 8003ea2:	06d8      	lsls	r0, r3, #27
 8003ea4:	4b16      	ldr	r3, [pc, #88]	; (8003f00 <USB_EPStartXfer+0x3a0>)
 8003ea6:	bf08      	it	eq
 8003ea8:	f102 32ff 	addeq.w	r2, r2, #4294967295
 8003eac:	ea43 2382 	orr.w	r3, r3, r2, lsl #10
 8003eb0:	b29b      	uxth	r3, r3
 8003eb2:	800b      	strh	r3, [r1, #0]
 8003eb4:	69e3      	ldr	r3, [r4, #28]
 8003eb6:	2b00      	cmp	r3, #0
 8003eb8:	d09f      	beq.n	8003dfa <USB_EPStartXfer+0x29a>
 8003eba:	7822      	ldrb	r2, [r4, #0]
 8003ebc:	f835 1022 	ldrh.w	r1, [r5, r2, lsl #2]
 8003ec0:	f244 0340 	movw	r3, #16448	; 0x4040
 8003ec4:	ea03 0001 	and.w	r0, r3, r1
 8003ec8:	438b      	bics	r3, r1
 8003eca:	d001      	beq.n	8003ed0 <USB_EPStartXfer+0x370>
 8003ecc:	2800      	cmp	r0, #0
 8003ece:	d194      	bne.n	8003dfa <USB_EPStartXfer+0x29a>
 8003ed0:	f835 3022 	ldrh.w	r3, [r5, r2, lsl #2]
 8003ed4:	f423 43e0 	bic.w	r3, r3, #28672	; 0x7000
 8003ed8:	f023 0370 	bic.w	r3, r3, #112	; 0x70
 8003edc:	041b      	lsls	r3, r3, #16
 8003ede:	0c1b      	lsrs	r3, r3, #16
 8003ee0:	f443 4300 	orr.w	r3, r3, #32768	; 0x8000
 8003ee4:	f043 03c0 	orr.w	r3, r3, #192	; 0xc0
 8003ee8:	f825 3022 	strh.w	r3, [r5, r2, lsl #2]
 8003eec:	e785      	b.n	8003dfa <USB_EPStartXfer+0x29a>
 8003eee:	085a      	lsrs	r2, r3, #1
 8003ef0:	07db      	lsls	r3, r3, #31
 8003ef2:	bf48      	it	mi
 8003ef4:	3201      	addmi	r2, #1
 8003ef6:	0292      	lsls	r2, r2, #10
 8003ef8:	b292      	uxth	r2, r2
 8003efa:	800a      	strh	r2, [r1, #0]
 8003efc:	e7da      	b.n	8003eb4 <USB_EPStartXfer+0x354>
 8003efe:	bf00      	nop
 8003f00:	ffff8000 	.word	0xffff8000
 8003f04:	2b01      	cmp	r3, #1
 8003f06:	d144      	bne.n	8003f92 <USB_EPStartXfer+0x432>
 8003f08:	69a3      	ldr	r3, [r4, #24]
 8003f0a:	6922      	ldr	r2, [r4, #16]
 8003f0c:	4293      	cmp	r3, r2
 8003f0e:	bf8a      	itet	hi
 8003f10:	1a98      	subhi	r0, r3, r2
 8003f12:	2000      	movls	r0, #0
 8003f14:	4613      	movhi	r3, r2
 8003f16:	61a0      	str	r0, [r4, #24]
 8003f18:	2900      	cmp	r1, #0
 8003f1a:	f47f af6e 	bne.w	8003dfa <USB_EPStartXfer+0x29a>
 8003f1e:	f8b5 1050 	ldrh.w	r1, [r5, #80]	; 0x50
 8003f22:	7822      	ldrb	r2, [r4, #0]
 8003f24:	f205 4002 	addw	r0, r5, #1026	; 0x402
 8003f28:	fa10 f181 	uxtah	r1, r0, r1
 8003f2c:	2b3e      	cmp	r3, #62	; 0x3e
 8003f2e:	eb01 01c2 	add.w	r1, r1, r2, lsl #3
 8003f32:	d90a      	bls.n	8003f4a <USB_EPStartXfer+0x3ea>
 8003f34:	0958      	lsrs	r0, r3, #5
 8003f36:	4a18      	ldr	r2, [pc, #96]	; (8003f98 <USB_EPStartXfer+0x438>)
 8003f38:	06df      	lsls	r7, r3, #27
 8003f3a:	bf08      	it	eq
 8003f3c:	f100 30ff 	addeq.w	r0, r0, #4294967295
 8003f40:	ea42 2280 	orr.w	r2, r2, r0, lsl #10
 8003f44:	b292      	uxth	r2, r2
 8003f46:	800a      	strh	r2, [r1, #0]
 8003f48:	e73b      	b.n	8003dc2 <USB_EPStartXfer+0x262>
 8003f4a:	b95b      	cbnz	r3, 8003f64 <USB_EPStartXfer+0x404>
 8003f4c:	880a      	ldrh	r2, [r1, #0]
 8003f4e:	f422 42f8 	bic.w	r2, r2, #31744	; 0x7c00
 8003f52:	0412      	lsls	r2, r2, #16
 8003f54:	0c12      	lsrs	r2, r2, #16
 8003f56:	800a      	strh	r2, [r1, #0]
 8003f58:	880a      	ldrh	r2, [r1, #0]
 8003f5a:	ea6f 4242 	mvn.w	r2, r2, lsl #17
 8003f5e:	ea6f 4252 	mvn.w	r2, r2, lsr #17
 8003f62:	e7ef      	b.n	8003f44 <USB_EPStartXfer+0x3e4>
 8003f64:	085a      	lsrs	r2, r3, #1
 8003f66:	07de      	lsls	r6, r3, #31
 8003f68:	bf48      	it	mi
 8003f6a:	3201      	addmi	r2, #1
 8003f6c:	0292      	lsls	r2, r2, #10
 8003f6e:	e7e9      	b.n	8003f44 <USB_EPStartXfer+0x3e4>
 8003f70:	095a      	lsrs	r2, r3, #5
 8003f72:	06d8      	lsls	r0, r3, #27
 8003f74:	4b08      	ldr	r3, [pc, #32]	; (8003f98 <USB_EPStartXfer+0x438>)
 8003f76:	bf08      	it	eq
 8003f78:	f102 32ff 	addeq.w	r2, r2, #4294967295
 8003f7c:	ea43 2382 	orr.w	r3, r3, r2, lsl #10
 8003f80:	e739      	b.n	8003df6 <USB_EPStartXfer+0x296>
 8003f82:	085a      	lsrs	r2, r3, #1
 8003f84:	07db      	lsls	r3, r3, #31
 8003f86:	bf48      	it	mi
 8003f88:	3201      	addmi	r2, #1
 8003f8a:	0292      	lsls	r2, r2, #10
 8003f8c:	b292      	uxth	r2, r2
 8003f8e:	800a      	strh	r2, [r1, #0]
 8003f90:	e733      	b.n	8003dfa <USB_EPStartXfer+0x29a>
 8003f92:	2001      	movs	r0, #1
 8003f94:	e616      	b.n	8003bc4 <USB_EPStartXfer+0x64>
 8003f96:	bf00      	nop
 8003f98:	ffff8000 	.word	0xffff8000

08003f9c <USB_ReadPMA>:
 8003f9c:	f502 6280 	add.w	r2, r2, #1024	; 0x400
 8003fa0:	b5f0      	push	{r4, r5, r6, r7, lr}
 8003fa2:	4410      	add	r0, r2
 8003fa4:	085d      	lsrs	r5, r3, #1
 8003fa6:	460c      	mov	r4, r1
 8003fa8:	462e      	mov	r6, r5
 8003faa:	1a47      	subs	r7, r0, r1
 8003fac:	193a      	adds	r2, r7, r4
 8003fae:	3402      	adds	r4, #2
 8003fb0:	b936      	cbnz	r6, 8003fc0 <USB_ReadPMA+0x24>
 8003fb2:	07db      	lsls	r3, r3, #31
 8003fb4:	bf44      	itt	mi
 8003fb6:	f830 3015 	ldrhmi.w	r3, [r0, r5, lsl #1]
 8003fba:	f801 3015 	strbmi.w	r3, [r1, r5, lsl #1]
 8003fbe:	bdf0      	pop	{r4, r5, r6, r7, pc}
 8003fc0:	8812      	ldrh	r2, [r2, #0]
 8003fc2:	b292      	uxth	r2, r2
 8003fc4:	f804 2c02 	strb.w	r2, [r4, #-2]
 8003fc8:	0a12      	lsrs	r2, r2, #8
 8003fca:	f804 2c01 	strb.w	r2, [r4, #-1]
 8003fce:	3e01      	subs	r6, #1
 8003fd0:	e7ec      	b.n	8003fac <USB_ReadPMA+0x10>

08003fd2 <USBD_CDC_EP0_RxReady>:
 8003fd2:	b510      	push	{r4, lr}
 8003fd4:	f8d0 42bc 	ldr.w	r4, [r0, #700]	; 0x2bc
 8003fd8:	b184      	cbz	r4, 8003ffc <USBD_CDC_EP0_RxReady+0x2a>
 8003fda:	f8d0 32c0 	ldr.w	r3, [r0, #704]	; 0x2c0
 8003fde:	b15b      	cbz	r3, 8003ff8 <USBD_CDC_EP0_RxReady+0x26>
 8003fe0:	f894 0200 	ldrb.w	r0, [r4, #512]	; 0x200
 8003fe4:	28ff      	cmp	r0, #255	; 0xff
 8003fe6:	d007      	beq.n	8003ff8 <USBD_CDC_EP0_RxReady+0x26>
 8003fe8:	689b      	ldr	r3, [r3, #8]
 8003fea:	f894 2201 	ldrb.w	r2, [r4, #513]	; 0x201
 8003fee:	4621      	mov	r1, r4
 8003ff0:	4798      	blx	r3
 8003ff2:	23ff      	movs	r3, #255	; 0xff
 8003ff4:	f884 3200 	strb.w	r3, [r4, #512]	; 0x200
 8003ff8:	2000      	movs	r0, #0
 8003ffa:	e000      	b.n	8003ffe <USBD_CDC_EP0_RxReady+0x2c>
 8003ffc:	2003      	movs	r0, #3
 8003ffe:	bd10      	pop	{r4, pc}

08004000 <USBD_CDC_GetFSCfgDesc>:
 8004000:	2343      	movs	r3, #67	; 0x43
 8004002:	8003      	strh	r3, [r0, #0]
 8004004:	4800      	ldr	r0, [pc, #0]	; (8004008 <USBD_CDC_GetFSCfgDesc+0x8>)
 8004006:	4770      	bx	lr
 8004008:	2000006c 	.word	0x2000006c

0800400c <USBD_CDC_GetHSCfgDesc>:
 800400c:	2343      	movs	r3, #67	; 0x43
 800400e:	8003      	strh	r3, [r0, #0]
 8004010:	4800      	ldr	r0, [pc, #0]	; (8004014 <USBD_CDC_GetHSCfgDesc+0x8>)
 8004012:	4770      	bx	lr
 8004014:	200000b0 	.word	0x200000b0

08004018 <USBD_CDC_GetOtherSpeedCfgDesc>:
 8004018:	2343      	movs	r3, #67	; 0x43
 800401a:	8003      	strh	r3, [r0, #0]
 800401c:	4800      	ldr	r0, [pc, #0]	; (8004020 <USBD_CDC_GetOtherSpeedCfgDesc+0x8>)
 800401e:	4770      	bx	lr
 8004020:	20000100 	.word	0x20000100

08004024 <USBD_CDC_GetDeviceQualifierDescriptor>:
 8004024:	230a      	movs	r3, #10
 8004026:	8003      	strh	r3, [r0, #0]
 8004028:	4800      	ldr	r0, [pc, #0]	; (800402c <USBD_CDC_GetDeviceQualifierDescriptor+0x8>)
 800402a:	4770      	bx	lr
 800402c:	200000f4 	.word	0x200000f4

08004030 <USBD_CDC_DataOut>:
 8004030:	b538      	push	{r3, r4, r5, lr}
 8004032:	f8d0 42bc 	ldr.w	r4, [r0, #700]	; 0x2bc
 8004036:	4605      	mov	r5, r0
 8004038:	b16c      	cbz	r4, 8004056 <USBD_CDC_DataOut+0x26>
 800403a:	f000 ff41 	bl	8004ec0 <USBD_LL_GetRxDataSize>
 800403e:	f8d5 32c0 	ldr.w	r3, [r5, #704]	; 0x2c0
 8004042:	f8c4 020c 	str.w	r0, [r4, #524]	; 0x20c
 8004046:	68db      	ldr	r3, [r3, #12]
 8004048:	f8d4 0204 	ldr.w	r0, [r4, #516]	; 0x204
 800404c:	f504 7103 	add.w	r1, r4, #524	; 0x20c
 8004050:	4798      	blx	r3
 8004052:	2000      	movs	r0, #0
 8004054:	bd38      	pop	{r3, r4, r5, pc}
 8004056:	2003      	movs	r0, #3
 8004058:	e7fc      	b.n	8004054 <USBD_CDC_DataOut+0x24>

0800405a <USBD_CDC_DataIn>:
 800405a:	b5f8      	push	{r3, r4, r5, r6, r7, lr}
 800405c:	f8d0 62bc 	ldr.w	r6, [r0, #700]	; 0x2bc
 8004060:	4605      	mov	r5, r0
 8004062:	460a      	mov	r2, r1
 8004064:	b336      	cbz	r6, 80040b4 <USBD_CDC_DataIn+0x5a>
 8004066:	2314      	movs	r3, #20
 8004068:	fb03 0301 	mla	r3, r3, r1, r0
 800406c:	699c      	ldr	r4, [r3, #24]
 800406e:	b194      	cbz	r4, 8004096 <USBD_CDC_DataIn+0x3c>
 8004070:	f8d0 72c4 	ldr.w	r7, [r0, #708]	; 0x2c4
 8004074:	f04f 0c28 	mov.w	ip, #40	; 0x28
 8004078:	fb0c 7701 	mla	r7, ip, r1, r7
 800407c:	6bbf      	ldr	r7, [r7, #56]	; 0x38
 800407e:	fbb4 fcf7 	udiv	ip, r4, r7
 8004082:	fb07 441c 	mls	r4, r7, ip, r4
 8004086:	b934      	cbnz	r4, 8004096 <USBD_CDC_DataIn+0x3c>
 8004088:	619c      	str	r4, [r3, #24]
 800408a:	4622      	mov	r2, r4
 800408c:	4623      	mov	r3, r4
 800408e:	f000 ff05 	bl	8004e9c <USBD_LL_Transmit>
 8004092:	4620      	mov	r0, r4
 8004094:	e00d      	b.n	80040b2 <USBD_CDC_DataIn+0x58>
 8004096:	f8d5 32c0 	ldr.w	r3, [r5, #704]	; 0x2c0
 800409a:	691c      	ldr	r4, [r3, #16]
 800409c:	2700      	movs	r7, #0
 800409e:	f8c6 7214 	str.w	r7, [r6, #532]	; 0x214
 80040a2:	2c00      	cmp	r4, #0
 80040a4:	d0f5      	beq.n	8004092 <USBD_CDC_DataIn+0x38>
 80040a6:	f8d6 0208 	ldr.w	r0, [r6, #520]	; 0x208
 80040aa:	f506 7104 	add.w	r1, r6, #528	; 0x210
 80040ae:	47a0      	blx	r4
 80040b0:	4638      	mov	r0, r7
 80040b2:	bdf8      	pop	{r3, r4, r5, r6, r7, pc}
 80040b4:	2003      	movs	r0, #3
 80040b6:	e7fc      	b.n	80040b2 <USBD_CDC_DataIn+0x58>

080040b8 <USBD_CDC_Setup>:
 80040b8:	e92d 43f7 	stmdb	sp!, {r0, r1, r2, r4, r5, r6, r7, r8, r9, lr}
 80040bc:	f8d0 72bc 	ldr.w	r7, [r0, #700]	; 0x2bc
 80040c0:	f04f 0800 	mov.w	r8, #0
 80040c4:	4605      	mov	r5, r0
 80040c6:	460e      	mov	r6, r1
 80040c8:	f88d 8005 	strb.w	r8, [sp, #5]
 80040cc:	f8ad 8006 	strh.w	r8, [sp, #6]
 80040d0:	2f00      	cmp	r7, #0
 80040d2:	d06a      	beq.n	80041aa <USBD_CDC_Setup+0xf2>
 80040d4:	780a      	ldrb	r2, [r1, #0]
 80040d6:	f012 0460 	ands.w	r4, r2, #96	; 0x60
 80040da:	d02b      	beq.n	8004134 <USBD_CDC_Setup+0x7c>
 80040dc:	2c20      	cmp	r4, #32
 80040de:	d160      	bne.n	80041a2 <USBD_CDC_Setup+0xea>
 80040e0:	88cc      	ldrh	r4, [r1, #6]
 80040e2:	784b      	ldrb	r3, [r1, #1]
 80040e4:	b1fc      	cbz	r4, 8004126 <USBD_CDC_Setup+0x6e>
 80040e6:	0612      	lsls	r2, r2, #24
 80040e8:	d514      	bpl.n	8004114 <USBD_CDC_Setup+0x5c>
 80040ea:	f8d0 22c0 	ldr.w	r2, [r0, #704]	; 0x2c0
 80040ee:	4639      	mov	r1, r7
 80040f0:	f8d2 9008 	ldr.w	r9, [r2, #8]
 80040f4:	4618      	mov	r0, r3
 80040f6:	4622      	mov	r2, r4
 80040f8:	47c8      	blx	r9
 80040fa:	88f2      	ldrh	r2, [r6, #6]
 80040fc:	2a07      	cmp	r2, #7
 80040fe:	bf28      	it	cs
 8004100:	2207      	movcs	r2, #7
 8004102:	4639      	mov	r1, r7
 8004104:	4628      	mov	r0, r5
 8004106:	f000 fc91 	bl	8004a2c <USBD_CtlSendData>
 800410a:	4644      	mov	r4, r8
 800410c:	4620      	mov	r0, r4
 800410e:	b003      	add	sp, #12
 8004110:	e8bd 83f0 	ldmia.w	sp!, {r4, r5, r6, r7, r8, r9, pc}
 8004114:	f887 3200 	strb.w	r3, [r7, #512]	; 0x200
 8004118:	f887 4201 	strb.w	r4, [r7, #513]	; 0x201
 800411c:	4622      	mov	r2, r4
 800411e:	4639      	mov	r1, r7
 8004120:	f000 fc99 	bl	8004a56 <USBD_CtlPrepareRx>
 8004124:	e7f1      	b.n	800410a <USBD_CDC_Setup+0x52>
 8004126:	f8d0 22c0 	ldr.w	r2, [r0, #704]	; 0x2c0
 800412a:	4618      	mov	r0, r3
 800412c:	6895      	ldr	r5, [r2, #8]
 800412e:	4622      	mov	r2, r4
 8004130:	47a8      	blx	r5
 8004132:	e7eb      	b.n	800410c <USBD_CDC_Setup+0x54>
 8004134:	784f      	ldrb	r7, [r1, #1]
 8004136:	2f0b      	cmp	r7, #11
 8004138:	d833      	bhi.n	80041a2 <USBD_CDC_Setup+0xea>
 800413a:	a301      	add	r3, pc, #4	; (adr r3, 8004140 <USBD_CDC_Setup+0x88>)
 800413c:	f853 f027 	ldr.w	pc, [r3, r7, lsl #2]
 8004140:	08004171 	.word	0x08004171
 8004144:	0800410d 	.word	0x0800410d
 8004148:	080041a3 	.word	0x080041a3
 800414c:	080041a3 	.word	0x080041a3
 8004150:	080041a3 	.word	0x080041a3
 8004154:	080041a3 	.word	0x080041a3
 8004158:	080041a3 	.word	0x080041a3
 800415c:	080041a3 	.word	0x080041a3
 8004160:	080041a3 	.word	0x080041a3
 8004164:	080041a3 	.word	0x080041a3
 8004168:	08004187 	.word	0x08004187
 800416c:	0800419b 	.word	0x0800419b
 8004170:	f890 329c 	ldrb.w	r3, [r0, #668]	; 0x29c
 8004174:	2b03      	cmp	r3, #3
 8004176:	d114      	bne.n	80041a2 <USBD_CDC_Setup+0xea>
 8004178:	2202      	movs	r2, #2
 800417a:	f10d 0106 	add.w	r1, sp, #6
 800417e:	f000 fc55 	bl	8004a2c <USBD_CtlSendData>
 8004182:	463c      	mov	r4, r7
 8004184:	e7c2      	b.n	800410c <USBD_CDC_Setup+0x54>
 8004186:	f890 329c 	ldrb.w	r3, [r0, #668]	; 0x29c
 800418a:	2b03      	cmp	r3, #3
 800418c:	d109      	bne.n	80041a2 <USBD_CDC_Setup+0xea>
 800418e:	2201      	movs	r2, #1
 8004190:	f10d 0105 	add.w	r1, sp, #5
 8004194:	f000 fc4a 	bl	8004a2c <USBD_CtlSendData>
 8004198:	e7b8      	b.n	800410c <USBD_CDC_Setup+0x54>
 800419a:	f890 329c 	ldrb.w	r3, [r0, #668]	; 0x29c
 800419e:	2b03      	cmp	r3, #3
 80041a0:	d0b4      	beq.n	800410c <USBD_CDC_Setup+0x54>
 80041a2:	4631      	mov	r1, r6
 80041a4:	4628      	mov	r0, r5
 80041a6:	f000 fc1a 	bl	80049de <USBD_CtlError>
 80041aa:	2403      	movs	r4, #3
 80041ac:	e7ae      	b.n	800410c <USBD_CDC_Setup+0x54>
 80041ae:	bf00      	nop

080041b0 <USBD_CDC_DeInit>:
 80041b0:	b538      	push	{r3, r4, r5, lr}
 80041b2:	4604      	mov	r4, r0
 80041b4:	2500      	movs	r5, #0
 80041b6:	2181      	movs	r1, #129	; 0x81
 80041b8:	f000 fe39 	bl	8004e2e <USBD_LL_CloseEP>
 80041bc:	2101      	movs	r1, #1
 80041be:	8725      	strh	r5, [r4, #56]	; 0x38
 80041c0:	4620      	mov	r0, r4
 80041c2:	f000 fe34 	bl	8004e2e <USBD_LL_CloseEP>
 80041c6:	f8a4 5178 	strh.w	r5, [r4, #376]	; 0x178
 80041ca:	2182      	movs	r1, #130	; 0x82
 80041cc:	4620      	mov	r0, r4
 80041ce:	f000 fe2e 	bl	8004e2e <USBD_LL_CloseEP>
 80041d2:	f8d4 32bc 	ldr.w	r3, [r4, #700]	; 0x2bc
 80041d6:	64e5      	str	r5, [r4, #76]	; 0x4c
 80041d8:	b14b      	cbz	r3, 80041ee <USBD_CDC_DeInit+0x3e>
 80041da:	f8d4 32c0 	ldr.w	r3, [r4, #704]	; 0x2c0
 80041de:	685b      	ldr	r3, [r3, #4]
 80041e0:	4798      	blx	r3
 80041e2:	f8d4 02bc 	ldr.w	r0, [r4, #700]	; 0x2bc
 80041e6:	f000 fe97 	bl	8004f18 <USBD_static_free>
 80041ea:	f8c4 52bc 	str.w	r5, [r4, #700]	; 0x2bc
 80041ee:	2000      	movs	r0, #0
 80041f0:	bd38      	pop	{r3, r4, r5, pc}

080041f2 <USBD_CDC_Init>:
 80041f2:	b5f8      	push	{r3, r4, r5, r6, r7, lr}
 80041f4:	4604      	mov	r4, r0
 80041f6:	f44f 7007 	mov.w	r0, #540	; 0x21c
 80041fa:	f000 fe89 	bl	8004f10 <USBD_static_malloc>
 80041fe:	4605      	mov	r5, r0
 8004200:	f8c4 02bc 	str.w	r0, [r4, #700]	; 0x2bc
 8004204:	b910      	cbnz	r0, 800420c <USBD_CDC_Init+0x1a>
 8004206:	2602      	movs	r6, #2
 8004208:	4630      	mov	r0, r6
 800420a:	bdf8      	pop	{r3, r4, r5, r6, r7, pc}
 800420c:	7c23      	ldrb	r3, [r4, #16]
 800420e:	bb8b      	cbnz	r3, 8004274 <USBD_CDC_Init+0x82>
 8004210:	f44f 7300 	mov.w	r3, #512	; 0x200
 8004214:	2202      	movs	r2, #2
 8004216:	2181      	movs	r1, #129	; 0x81
 8004218:	4620      	mov	r0, r4
 800421a:	2601      	movs	r6, #1
 800421c:	f000 fdfb 	bl	8004e16 <USBD_LL_OpenEP>
 8004220:	8726      	strh	r6, [r4, #56]	; 0x38
 8004222:	f44f 7300 	mov.w	r3, #512	; 0x200
 8004226:	4631      	mov	r1, r6
 8004228:	2202      	movs	r2, #2
 800422a:	4620      	mov	r0, r4
 800422c:	f000 fdf3 	bl	8004e16 <USBD_LL_OpenEP>
 8004230:	2310      	movs	r3, #16
 8004232:	f8a4 6178 	strh.w	r6, [r4, #376]	; 0x178
 8004236:	f8a4 304e 	strh.w	r3, [r4, #78]	; 0x4e
 800423a:	2203      	movs	r2, #3
 800423c:	2308      	movs	r3, #8
 800423e:	2182      	movs	r1, #130	; 0x82
 8004240:	4620      	mov	r0, r4
 8004242:	f000 fde8 	bl	8004e16 <USBD_LL_OpenEP>
 8004246:	f8d4 32c0 	ldr.w	r3, [r4, #704]	; 0x2c0
 800424a:	2101      	movs	r1, #1
 800424c:	f8a4 104c 	strh.w	r1, [r4, #76]	; 0x4c
 8004250:	2700      	movs	r7, #0
 8004252:	681b      	ldr	r3, [r3, #0]
 8004254:	4798      	blx	r3
 8004256:	f8c5 7214 	str.w	r7, [r5, #532]	; 0x214
 800425a:	f8c5 7218 	str.w	r7, [r5, #536]	; 0x218
 800425e:	7c26      	ldrb	r6, [r4, #16]
 8004260:	2101      	movs	r1, #1
 8004262:	b98e      	cbnz	r6, 8004288 <USBD_CDC_Init+0x96>
 8004264:	f8d5 2204 	ldr.w	r2, [r5, #516]	; 0x204
 8004268:	f44f 7300 	mov.w	r3, #512	; 0x200
 800426c:	4620      	mov	r0, r4
 800426e:	f000 fe1e 	bl	8004eae <USBD_LL_PrepareReceive>
 8004272:	e7c9      	b.n	8004208 <USBD_CDC_Init+0x16>
 8004274:	2340      	movs	r3, #64	; 0x40
 8004276:	2202      	movs	r2, #2
 8004278:	2181      	movs	r1, #129	; 0x81
 800427a:	4620      	mov	r0, r4
 800427c:	2601      	movs	r6, #1
 800427e:	f000 fdca 	bl	8004e16 <USBD_LL_OpenEP>
 8004282:	8726      	strh	r6, [r4, #56]	; 0x38
 8004284:	2340      	movs	r3, #64	; 0x40
 8004286:	e7ce      	b.n	8004226 <USBD_CDC_Init+0x34>
 8004288:	f8d5 2204 	ldr.w	r2, [r5, #516]	; 0x204
 800428c:	2340      	movs	r3, #64	; 0x40
 800428e:	4620      	mov	r0, r4
 8004290:	f000 fe0d 	bl	8004eae <USBD_LL_PrepareReceive>
 8004294:	463e      	mov	r6, r7
 8004296:	e7b7      	b.n	8004208 <USBD_CDC_Init+0x16>

08004298 <USBD_CDC_RegisterInterface>:
 8004298:	b119      	cbz	r1, 80042a2 <USBD_CDC_RegisterInterface+0xa>
 800429a:	f8c0 12c0 	str.w	r1, [r0, #704]	; 0x2c0
 800429e:	2000      	movs	r0, #0
 80042a0:	4770      	bx	lr
 80042a2:	2003      	movs	r0, #3
 80042a4:	4770      	bx	lr

080042a6 <USBD_CDC_SetTxBuffer>:
 80042a6:	f8d0 32bc 	ldr.w	r3, [r0, #700]	; 0x2bc
 80042aa:	b12b      	cbz	r3, 80042b8 <USBD_CDC_SetTxBuffer+0x12>
 80042ac:	f8c3 1208 	str.w	r1, [r3, #520]	; 0x208
 80042b0:	f8c3 2210 	str.w	r2, [r3, #528]	; 0x210
 80042b4:	2000      	movs	r0, #0
 80042b6:	4770      	bx	lr
 80042b8:	2003      	movs	r0, #3
 80042ba:	4770      	bx	lr

080042bc <USBD_CDC_SetRxBuffer>:
 80042bc:	f8d0 32bc 	ldr.w	r3, [r0, #700]	; 0x2bc
 80042c0:	b11b      	cbz	r3, 80042ca <USBD_CDC_SetRxBuffer+0xe>
 80042c2:	f8c3 1204 	str.w	r1, [r3, #516]	; 0x204
 80042c6:	2000      	movs	r0, #0
 80042c8:	4770      	bx	lr
 80042ca:	2003      	movs	r0, #3
 80042cc:	4770      	bx	lr

080042ce <USBD_CDC_TransmitPacket>:
 80042ce:	f8d0 22bc 	ldr.w	r2, [r0, #700]	; 0x2bc
 80042d2:	b510      	push	{r4, lr}
 80042d4:	b17a      	cbz	r2, 80042f6 <USBD_CDC_TransmitPacket+0x28>
 80042d6:	f8d2 4214 	ldr.w	r4, [r2, #532]	; 0x214
 80042da:	2301      	movs	r3, #1
 80042dc:	b96c      	cbnz	r4, 80042fa <USBD_CDC_TransmitPacket+0x2c>
 80042de:	f8c2 3214 	str.w	r3, [r2, #532]	; 0x214
 80042e2:	f8d2 3210 	ldr.w	r3, [r2, #528]	; 0x210
 80042e6:	62c3      	str	r3, [r0, #44]	; 0x2c
 80042e8:	f8d2 2208 	ldr.w	r2, [r2, #520]	; 0x208
 80042ec:	2181      	movs	r1, #129	; 0x81
 80042ee:	f000 fdd5 	bl	8004e9c <USBD_LL_Transmit>
 80042f2:	4620      	mov	r0, r4
 80042f4:	bd10      	pop	{r4, pc}
 80042f6:	2003      	movs	r0, #3
 80042f8:	e7fc      	b.n	80042f4 <USBD_CDC_TransmitPacket+0x26>
 80042fa:	4618      	mov	r0, r3
 80042fc:	e7fa      	b.n	80042f4 <USBD_CDC_TransmitPacket+0x26>

080042fe <USBD_CDC_ReceivePacket>:
 80042fe:	f8d0 22bc 	ldr.w	r2, [r0, #700]	; 0x2bc
 8004302:	b510      	push	{r4, lr}
 8004304:	b182      	cbz	r2, 8004328 <USBD_CDC_ReceivePacket+0x2a>
 8004306:	7c04      	ldrb	r4, [r0, #16]
 8004308:	f8d2 2204 	ldr.w	r2, [r2, #516]	; 0x204
 800430c:	b934      	cbnz	r4, 800431c <USBD_CDC_ReceivePacket+0x1e>
 800430e:	f44f 7300 	mov.w	r3, #512	; 0x200
 8004312:	2101      	movs	r1, #1
 8004314:	f000 fdcb 	bl	8004eae <USBD_LL_PrepareReceive>
 8004318:	4620      	mov	r0, r4
 800431a:	bd10      	pop	{r4, pc}
 800431c:	2340      	movs	r3, #64	; 0x40
 800431e:	2101      	movs	r1, #1
 8004320:	f000 fdc5 	bl	8004eae <USBD_LL_PrepareReceive>
 8004324:	2400      	movs	r4, #0
 8004326:	e7f7      	b.n	8004318 <USBD_CDC_ReceivePacket+0x1a>
 8004328:	2403      	movs	r4, #3
 800432a:	e7f5      	b.n	8004318 <USBD_CDC_ReceivePacket+0x1a>

0800432c <USBD_Init>:
 800432c:	b178      	cbz	r0, 800434e <USBD_Init+0x22>
 800432e:	2300      	movs	r3, #0
 8004330:	f8c0 32b8 	str.w	r3, [r0, #696]	; 0x2b8
 8004334:	f8c0 32c0 	str.w	r3, [r0, #704]	; 0x2c0
 8004338:	f8c0 32cc 	str.w	r3, [r0, #716]	; 0x2cc
 800433c:	b109      	cbz	r1, 8004342 <USBD_Init+0x16>
 800433e:	f8c0 12b4 	str.w	r1, [r0, #692]	; 0x2b4
 8004342:	2301      	movs	r3, #1
 8004344:	f880 329c 	strb.w	r3, [r0, #668]	; 0x29c
 8004348:	7002      	strb	r2, [r0, #0]
 800434a:	f000 bd17 	b.w	8004d7c <USBD_LL_Init>
 800434e:	2003      	movs	r0, #3
 8004350:	4770      	bx	lr

08004352 <USBD_RegisterClass>:
 8004352:	b537      	push	{r0, r1, r2, r4, r5, lr}
 8004354:	2500      	movs	r5, #0
 8004356:	4604      	mov	r4, r0
 8004358:	f8ad 5006 	strh.w	r5, [sp, #6]
 800435c:	b159      	cbz	r1, 8004376 <USBD_RegisterClass+0x24>
 800435e:	6acb      	ldr	r3, [r1, #44]	; 0x2c
 8004360:	f8c0 12b8 	str.w	r1, [r0, #696]	; 0x2b8
 8004364:	b14b      	cbz	r3, 800437a <USBD_RegisterClass+0x28>
 8004366:	f10d 0006 	add.w	r0, sp, #6
 800436a:	4798      	blx	r3
 800436c:	f8c4 02cc 	str.w	r0, [r4, #716]	; 0x2cc
 8004370:	4628      	mov	r0, r5
 8004372:	b003      	add	sp, #12
 8004374:	bd30      	pop	{r4, r5, pc}
 8004376:	2003      	movs	r0, #3
 8004378:	e7fb      	b.n	8004372 <USBD_RegisterClass+0x20>
 800437a:	4618      	mov	r0, r3
 800437c:	e7f9      	b.n	8004372 <USBD_RegisterClass+0x20>

0800437e <USBD_Start>:
 800437e:	f000 bd41 	b.w	8004e04 <USBD_LL_Start>

08004382 <USBD_SetClassConfig>:
 8004382:	f8d0 32b8 	ldr.w	r3, [r0, #696]	; 0x2b8
 8004386:	b10b      	cbz	r3, 800438c <USBD_SetClassConfig+0xa>
 8004388:	681b      	ldr	r3, [r3, #0]
 800438a:	4718      	bx	r3
 800438c:	2003      	movs	r0, #3
 800438e:	4770      	bx	lr

08004390 <USBD_ClrClassConfig>:
 8004390:	b508      	push	{r3, lr}
 8004392:	f8d0 32b8 	ldr.w	r3, [r0, #696]	; 0x2b8
 8004396:	b10b      	cbz	r3, 800439c <USBD_ClrClassConfig+0xc>
 8004398:	685b      	ldr	r3, [r3, #4]
 800439a:	4798      	blx	r3
 800439c:	2000      	movs	r0, #0
 800439e:	bd08      	pop	{r3, pc}

080043a0 <USBD_LL_SetupStage>:
 80043a0:	b538      	push	{r3, r4, r5, lr}
 80043a2:	4604      	mov	r4, r0
 80043a4:	f200 25aa 	addw	r5, r0, #682	; 0x2aa
 80043a8:	4628      	mov	r0, r5
 80043aa:	f000 fb0d 	bl	80049c8 <USBD_ParseSetupRequest>
 80043ae:	2301      	movs	r3, #1
 80043b0:	f894 12aa 	ldrb.w	r1, [r4, #682]	; 0x2aa
 80043b4:	f8c4 3294 	str.w	r3, [r4, #660]	; 0x294
 80043b8:	f8b4 32b0 	ldrh.w	r3, [r4, #688]	; 0x2b0
 80043bc:	f8c4 3298 	str.w	r3, [r4, #664]	; 0x298
 80043c0:	f001 031f 	and.w	r3, r1, #31
 80043c4:	2b01      	cmp	r3, #1
 80043c6:	d008      	beq.n	80043da <USBD_LL_SetupStage+0x3a>
 80043c8:	2b02      	cmp	r3, #2
 80043ca:	d00c      	beq.n	80043e6 <USBD_LL_SetupStage+0x46>
 80043cc:	b98b      	cbnz	r3, 80043f2 <USBD_LL_SetupStage+0x52>
 80043ce:	4629      	mov	r1, r5
 80043d0:	4620      	mov	r0, r4
 80043d2:	e8bd 4038 	ldmia.w	sp!, {r3, r4, r5, lr}
 80043d6:	f000 b8f5 	b.w	80045c4 <USBD_StdDevReq>
 80043da:	4629      	mov	r1, r5
 80043dc:	4620      	mov	r0, r4
 80043de:	e8bd 4038 	ldmia.w	sp!, {r3, r4, r5, lr}
 80043e2:	f000 ba3b 	b.w	800485c <USBD_StdItfReq>
 80043e6:	4629      	mov	r1, r5
 80043e8:	4620      	mov	r0, r4
 80043ea:	e8bd 4038 	ldmia.w	sp!, {r3, r4, r5, lr}
 80043ee:	f000 ba5b 	b.w	80048a8 <USBD_StdEPReq>
 80043f2:	4620      	mov	r0, r4
 80043f4:	f001 0180 	and.w	r1, r1, #128	; 0x80
 80043f8:	e8bd 4038 	ldmia.w	sp!, {r3, r4, r5, lr}
 80043fc:	f000 bd20 	b.w	8004e40 <USBD_LL_StallEP>

08004400 <USBD_LL_DataOutStage>:
 8004400:	b570      	push	{r4, r5, r6, lr}
 8004402:	4604      	mov	r4, r0
 8004404:	4615      	mov	r5, r2
 8004406:	b9f9      	cbnz	r1, 8004448 <USBD_LL_DataOutStage+0x48>
 8004408:	f8d0 3294 	ldr.w	r3, [r0, #660]	; 0x294
 800440c:	2b03      	cmp	r3, #3
 800440e:	d10c      	bne.n	800442a <USBD_LL_DataOutStage+0x2a>
 8004410:	e9d0 3257 	ldrd	r3, r2, [r0, #348]	; 0x15c
 8004414:	4293      	cmp	r3, r2
 8004416:	d90a      	bls.n	800442e <USBD_LL_DataOutStage+0x2e>
 8004418:	1a9b      	subs	r3, r3, r2
 800441a:	429a      	cmp	r2, r3
 800441c:	f8c0 315c 	str.w	r3, [r0, #348]	; 0x15c
 8004420:	bf28      	it	cs
 8004422:	461a      	movcs	r2, r3
 8004424:	4629      	mov	r1, r5
 8004426:	f000 fb23 	bl	8004a70 <USBD_CtlContinueRx>
 800442a:	2000      	movs	r0, #0
 800442c:	bd70      	pop	{r4, r5, r6, pc}
 800442e:	f890 329c 	ldrb.w	r3, [r0, #668]	; 0x29c
 8004432:	2b03      	cmp	r3, #3
 8004434:	d104      	bne.n	8004440 <USBD_LL_DataOutStage+0x40>
 8004436:	f8d0 32b8 	ldr.w	r3, [r0, #696]	; 0x2b8
 800443a:	691b      	ldr	r3, [r3, #16]
 800443c:	b103      	cbz	r3, 8004440 <USBD_LL_DataOutStage+0x40>
 800443e:	4798      	blx	r3
 8004440:	4620      	mov	r0, r4
 8004442:	f000 fb1d 	bl	8004a80 <USBD_CtlSendStatus>
 8004446:	e7f0      	b.n	800442a <USBD_LL_DataOutStage+0x2a>
 8004448:	f890 329c 	ldrb.w	r3, [r0, #668]	; 0x29c
 800444c:	2b03      	cmp	r3, #3
 800444e:	d1ec      	bne.n	800442a <USBD_LL_DataOutStage+0x2a>
 8004450:	f8d0 32b8 	ldr.w	r3, [r0, #696]	; 0x2b8
 8004454:	699b      	ldr	r3, [r3, #24]
 8004456:	2b00      	cmp	r3, #0
 8004458:	d0e7      	beq.n	800442a <USBD_LL_DataOutStage+0x2a>
 800445a:	e8bd 4070 	ldmia.w	sp!, {r4, r5, r6, lr}
 800445e:	4718      	bx	r3

08004460 <USBD_LL_DataInStage>:
 8004460:	b573      	push	{r0, r1, r4, r5, r6, lr}
 8004462:	4604      	mov	r4, r0
 8004464:	4616      	mov	r6, r2
 8004466:	2900      	cmp	r1, #0
 8004468:	d13f      	bne.n	80044ea <USBD_LL_DataInStage+0x8a>
 800446a:	f8d0 2294 	ldr.w	r2, [r0, #660]	; 0x294
 800446e:	2a02      	cmp	r2, #2
 8004470:	d10f      	bne.n	8004492 <USBD_LL_DataInStage+0x32>
 8004472:	e9d0 5207 	ldrd	r5, r2, [r0, #28]
 8004476:	4295      	cmp	r5, r2
 8004478:	d915      	bls.n	80044a6 <USBD_LL_DataInStage+0x46>
 800447a:	1aaa      	subs	r2, r5, r2
 800447c:	9101      	str	r1, [sp, #4]
 800447e:	61c2      	str	r2, [r0, #28]
 8004480:	4631      	mov	r1, r6
 8004482:	f000 fae0 	bl	8004a46 <USBD_CtlContinueSendData>
 8004486:	9b01      	ldr	r3, [sp, #4]
 8004488:	461a      	mov	r2, r3
 800448a:	4619      	mov	r1, r3
 800448c:	4620      	mov	r0, r4
 800448e:	f000 fd0e 	bl	8004eae <USBD_LL_PrepareReceive>
 8004492:	f894 32a0 	ldrb.w	r3, [r4, #672]	; 0x2a0
 8004496:	2b01      	cmp	r3, #1
 8004498:	d102      	bne.n	80044a0 <USBD_LL_DataInStage+0x40>
 800449a:	2300      	movs	r3, #0
 800449c:	f884 32a0 	strb.w	r3, [r4, #672]	; 0x2a0
 80044a0:	2000      	movs	r0, #0
 80044a2:	b002      	add	sp, #8
 80044a4:	bd70      	pop	{r4, r5, r6, pc}
 80044a6:	d10e      	bne.n	80044c6 <USBD_LL_DataInStage+0x66>
 80044a8:	6982      	ldr	r2, [r0, #24]
 80044aa:	4295      	cmp	r5, r2
 80044ac:	d80b      	bhi.n	80044c6 <USBD_LL_DataInStage+0x66>
 80044ae:	f8d0 5298 	ldr.w	r5, [r0, #664]	; 0x298
 80044b2:	42aa      	cmp	r2, r5
 80044b4:	d207      	bcs.n	80044c6 <USBD_LL_DataInStage+0x66>
 80044b6:	460a      	mov	r2, r1
 80044b8:	9101      	str	r1, [sp, #4]
 80044ba:	f000 fac4 	bl	8004a46 <USBD_CtlContinueSendData>
 80044be:	9b01      	ldr	r3, [sp, #4]
 80044c0:	f8c4 3298 	str.w	r3, [r4, #664]	; 0x298
 80044c4:	e7e0      	b.n	8004488 <USBD_LL_DataInStage+0x28>
 80044c6:	f894 329c 	ldrb.w	r3, [r4, #668]	; 0x29c
 80044ca:	2b03      	cmp	r3, #3
 80044cc:	d105      	bne.n	80044da <USBD_LL_DataInStage+0x7a>
 80044ce:	f8d4 32b8 	ldr.w	r3, [r4, #696]	; 0x2b8
 80044d2:	68db      	ldr	r3, [r3, #12]
 80044d4:	b10b      	cbz	r3, 80044da <USBD_LL_DataInStage+0x7a>
 80044d6:	4620      	mov	r0, r4
 80044d8:	4798      	blx	r3
 80044da:	2180      	movs	r1, #128	; 0x80
 80044dc:	4620      	mov	r0, r4
 80044de:	f000 fcaf 	bl	8004e40 <USBD_LL_StallEP>
 80044e2:	4620      	mov	r0, r4
 80044e4:	f000 fad7 	bl	8004a96 <USBD_CtlReceiveStatus>
 80044e8:	e7d3      	b.n	8004492 <USBD_LL_DataInStage+0x32>
 80044ea:	f890 329c 	ldrb.w	r3, [r0, #668]	; 0x29c
 80044ee:	2b03      	cmp	r3, #3
 80044f0:	d1d6      	bne.n	80044a0 <USBD_LL_DataInStage+0x40>
 80044f2:	f8d0 32b8 	ldr.w	r3, [r0, #696]	; 0x2b8
 80044f6:	695b      	ldr	r3, [r3, #20]
 80044f8:	2b00      	cmp	r3, #0
 80044fa:	d0d1      	beq.n	80044a0 <USBD_LL_DataInStage+0x40>
 80044fc:	b002      	add	sp, #8
 80044fe:	e8bd 4070 	ldmia.w	sp!, {r4, r5, r6, lr}
 8004502:	4718      	bx	r3

08004504 <USBD_LL_Reset>:
 8004504:	2301      	movs	r3, #1
 8004506:	b570      	push	{r4, r5, r6, lr}
 8004508:	f880 329c 	strb.w	r3, [r0, #668]	; 0x29c
 800450c:	f8d0 32b8 	ldr.w	r3, [r0, #696]	; 0x2b8
 8004510:	2100      	movs	r1, #0
 8004512:	4604      	mov	r4, r0
 8004514:	f8c0 1294 	str.w	r1, [r0, #660]	; 0x294
 8004518:	6041      	str	r1, [r0, #4]
 800451a:	f8c0 12a4 	str.w	r1, [r0, #676]	; 0x2a4
 800451e:	b1db      	cbz	r3, 8004558 <USBD_LL_Reset+0x54>
 8004520:	f8d0 22bc 	ldr.w	r2, [r0, #700]	; 0x2bc
 8004524:	b112      	cbz	r2, 800452c <USBD_LL_Reset+0x28>
 8004526:	685b      	ldr	r3, [r3, #4]
 8004528:	b103      	cbz	r3, 800452c <USBD_LL_Reset+0x28>
 800452a:	4798      	blx	r3
 800452c:	2200      	movs	r2, #0
 800452e:	4611      	mov	r1, r2
 8004530:	2540      	movs	r5, #64	; 0x40
 8004532:	2340      	movs	r3, #64	; 0x40
 8004534:	2601      	movs	r6, #1
 8004536:	4620      	mov	r0, r4
 8004538:	f000 fc6d 	bl	8004e16 <USBD_LL_OpenEP>
 800453c:	f8a4 6164 	strh.w	r6, [r4, #356]	; 0x164
 8004540:	f8c4 5160 	str.w	r5, [r4, #352]	; 0x160
 8004544:	462b      	mov	r3, r5
 8004546:	2200      	movs	r2, #0
 8004548:	2180      	movs	r1, #128	; 0x80
 800454a:	4620      	mov	r0, r4
 800454c:	f000 fc63 	bl	8004e16 <USBD_LL_OpenEP>
 8004550:	84a6      	strh	r6, [r4, #36]	; 0x24
 8004552:	6225      	str	r5, [r4, #32]
 8004554:	2000      	movs	r0, #0
 8004556:	bd70      	pop	{r4, r5, r6, pc}
 8004558:	2003      	movs	r0, #3
 800455a:	e7fc      	b.n	8004556 <USBD_LL_Reset+0x52>

0800455c <USBD_LL_SetSpeed>:
 800455c:	7401      	strb	r1, [r0, #16]
 800455e:	2000      	movs	r0, #0
 8004560:	4770      	bx	lr

08004562 <USBD_LL_Suspend>:
 8004562:	f890 329c 	ldrb.w	r3, [r0, #668]	; 0x29c
 8004566:	b2db      	uxtb	r3, r3
 8004568:	f880 329d 	strb.w	r3, [r0, #669]	; 0x29d
 800456c:	2304      	movs	r3, #4
 800456e:	f880 329c 	strb.w	r3, [r0, #668]	; 0x29c
 8004572:	2000      	movs	r0, #0
 8004574:	4770      	bx	lr

08004576 <USBD_LL_Resume>:
 8004576:	f890 329c 	ldrb.w	r3, [r0, #668]	; 0x29c
 800457a:	2b04      	cmp	r3, #4
 800457c:	bf02      	ittt	eq
 800457e:	f890 329d 	ldrbeq.w	r3, [r0, #669]	; 0x29d
 8004582:	b2db      	uxtbeq	r3, r3
 8004584:	f880 329c 	strbeq.w	r3, [r0, #668]	; 0x29c
 8004588:	2000      	movs	r0, #0
 800458a:	4770      	bx	lr

0800458c <USBD_LL_SOF>:
 800458c:	f8d0 22b8 	ldr.w	r2, [r0, #696]	; 0x2b8
 8004590:	b508      	push	{r3, lr}
 8004592:	b142      	cbz	r2, 80045a6 <USBD_LL_SOF+0x1a>
 8004594:	f890 329c 	ldrb.w	r3, [r0, #668]	; 0x29c
 8004598:	2b03      	cmp	r3, #3
 800459a:	d102      	bne.n	80045a2 <USBD_LL_SOF+0x16>
 800459c:	69d3      	ldr	r3, [r2, #28]
 800459e:	b123      	cbz	r3, 80045aa <USBD_LL_SOF+0x1e>
 80045a0:	4798      	blx	r3
 80045a2:	2000      	movs	r0, #0
 80045a4:	e000      	b.n	80045a8 <USBD_LL_SOF+0x1c>
 80045a6:	2003      	movs	r0, #3
 80045a8:	bd08      	pop	{r3, pc}
 80045aa:	4618      	mov	r0, r3
 80045ac:	e7fc      	b.n	80045a8 <USBD_LL_SOF+0x1c>

080045ae <USBD_CtlError.constprop.0>:
 80045ae:	b510      	push	{r4, lr}
 80045b0:	2180      	movs	r1, #128	; 0x80
 80045b2:	4604      	mov	r4, r0
 80045b4:	f000 fc44 	bl	8004e40 <USBD_LL_StallEP>
 80045b8:	4620      	mov	r0, r4
 80045ba:	2100      	movs	r1, #0
 80045bc:	e8bd 4010 	ldmia.w	sp!, {r4, lr}
 80045c0:	f000 bc3e 	b.w	8004e40 <USBD_LL_StallEP>

080045c4 <USBD_StdDevReq>:
 80045c4:	b5f7      	push	{r0, r1, r2, r4, r5, r6, r7, lr}
 80045c6:	780d      	ldrb	r5, [r1, #0]
 80045c8:	f005 0560 	and.w	r5, r5, #96	; 0x60
 80045cc:	2d20      	cmp	r5, #32
 80045ce:	4604      	mov	r4, r0
 80045d0:	460e      	mov	r6, r1
 80045d2:	d014      	beq.n	80045fe <USBD_StdDevReq+0x3a>
 80045d4:	2d40      	cmp	r5, #64	; 0x40
 80045d6:	d012      	beq.n	80045fe <USBD_StdDevReq+0x3a>
 80045d8:	2d00      	cmp	r5, #0
 80045da:	f040 8109 	bne.w	80047f0 <USBD_StdDevReq+0x22c>
 80045de:	784f      	ldrb	r7, [r1, #1]
 80045e0:	2f09      	cmp	r7, #9
 80045e2:	f200 8105 	bhi.w	80047f0 <USBD_StdDevReq+0x22c>
 80045e6:	e8df f017 	tbh	[pc, r7, lsl #1]
 80045ea:	010a      	.short	0x010a
 80045ec:	0103012c 	.word	0x0103012c
 80045f0:	01030122 	.word	0x01030122
 80045f4:	0013008a 	.word	0x0013008a
 80045f8:	00f20103 	.word	0x00f20103
 80045fc:	00a6      	.short	0x00a6
 80045fe:	f8d4 32b8 	ldr.w	r3, [r4, #696]	; 0x2b8
 8004602:	689b      	ldr	r3, [r3, #8]
 8004604:	4631      	mov	r1, r6
 8004606:	4620      	mov	r0, r4
 8004608:	b003      	add	sp, #12
 800460a:	e8bd 40f0 	ldmia.w	sp!, {r4, r5, r6, r7, lr}
 800460e:	4718      	bx	r3
 8004610:	2300      	movs	r3, #0
 8004612:	f8ad 3006 	strh.w	r3, [sp, #6]
 8004616:	884b      	ldrh	r3, [r1, #2]
 8004618:	0a1a      	lsrs	r2, r3, #8
 800461a:	3a01      	subs	r2, #1
 800461c:	2a0e      	cmp	r2, #14
 800461e:	d80d      	bhi.n	800463c <USBD_StdDevReq+0x78>
 8004620:	e8df f002 	tbb	[pc, r2]
 8004624:	0c382b12 	.word	0x0c382b12
 8004628:	0c62580c 	.word	0x0c62580c
 800462c:	0c0c0c0c 	.word	0x0c0c0c0c
 8004630:	0c0c      	.short	0x0c0c
 8004632:	08          	.byte	0x08
 8004633:	00          	.byte	0x00
 8004634:	f8d0 32b4 	ldr.w	r3, [r0, #692]	; 0x2b4
 8004638:	69db      	ldr	r3, [r3, #28]
 800463a:	b943      	cbnz	r3, 800464e <USBD_StdDevReq+0x8a>
 800463c:	4620      	mov	r0, r4
 800463e:	f7ff ffb6 	bl	80045ae <USBD_CtlError.constprop.0>
 8004642:	4628      	mov	r0, r5
 8004644:	b003      	add	sp, #12
 8004646:	bdf0      	pop	{r4, r5, r6, r7, pc}
 8004648:	f8d0 32b4 	ldr.w	r3, [r0, #692]	; 0x2b4
 800464c:	681b      	ldr	r3, [r3, #0]
 800464e:	7c20      	ldrb	r0, [r4, #16]
 8004650:	f10d 0106 	add.w	r1, sp, #6
 8004654:	4798      	blx	r3
 8004656:	88f2      	ldrh	r2, [r6, #6]
 8004658:	2a00      	cmp	r2, #0
 800465a:	f000 80ee 	beq.w	800483a <USBD_StdDevReq+0x276>
 800465e:	f8bd 3006 	ldrh.w	r3, [sp, #6]
 8004662:	2b00      	cmp	r3, #0
 8004664:	d0ea      	beq.n	800463c <USBD_StdDevReq+0x78>
 8004666:	429a      	cmp	r2, r3
 8004668:	bf28      	it	cs
 800466a:	461a      	movcs	r2, r3
 800466c:	f8ad 2006 	strh.w	r2, [sp, #6]
 8004670:	4601      	mov	r1, r0
 8004672:	4620      	mov	r0, r4
 8004674:	f000 f9da 	bl	8004a2c <USBD_CtlSendData>
 8004678:	e7e3      	b.n	8004642 <USBD_StdDevReq+0x7e>
 800467a:	7c02      	ldrb	r2, [r0, #16]
 800467c:	f8d0 32b8 	ldr.w	r3, [r0, #696]	; 0x2b8
 8004680:	b932      	cbnz	r2, 8004690 <USBD_StdDevReq+0xcc>
 8004682:	6a9b      	ldr	r3, [r3, #40]	; 0x28
 8004684:	f10d 0006 	add.w	r0, sp, #6
 8004688:	4798      	blx	r3
 800468a:	2302      	movs	r3, #2
 800468c:	7043      	strb	r3, [r0, #1]
 800468e:	e7e2      	b.n	8004656 <USBD_StdDevReq+0x92>
 8004690:	6adb      	ldr	r3, [r3, #44]	; 0x2c
 8004692:	e7f7      	b.n	8004684 <USBD_StdDevReq+0xc0>
 8004694:	b2db      	uxtb	r3, r3
 8004696:	2b05      	cmp	r3, #5
 8004698:	d8d0      	bhi.n	800463c <USBD_StdDevReq+0x78>
 800469a:	e8df f003 	tbb	[pc, r3]
 800469e:	0703      	.short	0x0703
 80046a0:	17130f0b 	.word	0x17130f0b
 80046a4:	f8d0 32b4 	ldr.w	r3, [r0, #692]	; 0x2b4
 80046a8:	685b      	ldr	r3, [r3, #4]
 80046aa:	e7c6      	b.n	800463a <USBD_StdDevReq+0x76>
 80046ac:	f8d0 32b4 	ldr.w	r3, [r0, #692]	; 0x2b4
 80046b0:	689b      	ldr	r3, [r3, #8]
 80046b2:	e7c2      	b.n	800463a <USBD_StdDevReq+0x76>
 80046b4:	f8d0 32b4 	ldr.w	r3, [r0, #692]	; 0x2b4
 80046b8:	68db      	ldr	r3, [r3, #12]
 80046ba:	e7be      	b.n	800463a <USBD_StdDevReq+0x76>
 80046bc:	f8d0 32b4 	ldr.w	r3, [r0, #692]	; 0x2b4
 80046c0:	691b      	ldr	r3, [r3, #16]
 80046c2:	e7ba      	b.n	800463a <USBD_StdDevReq+0x76>
 80046c4:	f8d0 32b4 	ldr.w	r3, [r0, #692]	; 0x2b4
 80046c8:	695b      	ldr	r3, [r3, #20]
 80046ca:	e7b6      	b.n	800463a <USBD_StdDevReq+0x76>
 80046cc:	f8d0 32b4 	ldr.w	r3, [r0, #692]	; 0x2b4
 80046d0:	699b      	ldr	r3, [r3, #24]
 80046d2:	e7b2      	b.n	800463a <USBD_StdDevReq+0x76>
 80046d4:	7c03      	ldrb	r3, [r0, #16]
 80046d6:	2b00      	cmp	r3, #0
 80046d8:	d1b0      	bne.n	800463c <USBD_StdDevReq+0x78>
 80046da:	f8d0 32b8 	ldr.w	r3, [r0, #696]	; 0x2b8
 80046de:	f10d 0006 	add.w	r0, sp, #6
 80046e2:	6b5b      	ldr	r3, [r3, #52]	; 0x34
 80046e4:	4798      	blx	r3
 80046e6:	e7b6      	b.n	8004656 <USBD_StdDevReq+0x92>
 80046e8:	7c03      	ldrb	r3, [r0, #16]
 80046ea:	2b00      	cmp	r3, #0
 80046ec:	d1a6      	bne.n	800463c <USBD_StdDevReq+0x78>
 80046ee:	f8d0 32b8 	ldr.w	r3, [r0, #696]	; 0x2b8
 80046f2:	f10d 0006 	add.w	r0, sp, #6
 80046f6:	6b1b      	ldr	r3, [r3, #48]	; 0x30
 80046f8:	4798      	blx	r3
 80046fa:	2307      	movs	r3, #7
 80046fc:	e7c6      	b.n	800468c <USBD_StdDevReq+0xc8>
 80046fe:	888b      	ldrh	r3, [r1, #4]
 8004700:	2b00      	cmp	r3, #0
 8004702:	d19b      	bne.n	800463c <USBD_StdDevReq+0x78>
 8004704:	88cb      	ldrh	r3, [r1, #6]
 8004706:	2b00      	cmp	r3, #0
 8004708:	d198      	bne.n	800463c <USBD_StdDevReq+0x78>
 800470a:	884e      	ldrh	r6, [r1, #2]
 800470c:	2e7f      	cmp	r6, #127	; 0x7f
 800470e:	d895      	bhi.n	800463c <USBD_StdDevReq+0x78>
 8004710:	f890 329c 	ldrb.w	r3, [r0, #668]	; 0x29c
 8004714:	2b03      	cmp	r3, #3
 8004716:	d091      	beq.n	800463c <USBD_StdDevReq+0x78>
 8004718:	b2f1      	uxtb	r1, r6
 800471a:	f880 129e 	strb.w	r1, [r0, #670]	; 0x29e
 800471e:	f000 fbb4 	bl	8004e8a <USBD_LL_SetUSBAddress>
 8004722:	4620      	mov	r0, r4
 8004724:	f000 f9ac 	bl	8004a80 <USBD_CtlSendStatus>
 8004728:	b11e      	cbz	r6, 8004732 <USBD_StdDevReq+0x16e>
 800472a:	2302      	movs	r3, #2
 800472c:	f884 329c 	strb.w	r3, [r4, #668]	; 0x29c
 8004730:	e787      	b.n	8004642 <USBD_StdDevReq+0x7e>
 8004732:	2301      	movs	r3, #1
 8004734:	e7fa      	b.n	800472c <USBD_StdDevReq+0x168>
 8004736:	788e      	ldrb	r6, [r1, #2]
 8004738:	4f47      	ldr	r7, [pc, #284]	; (8004858 <USBD_StdDevReq+0x294>)
 800473a:	2e01      	cmp	r6, #1
 800473c:	703e      	strb	r6, [r7, #0]
 800473e:	d903      	bls.n	8004748 <USBD_StdDevReq+0x184>
 8004740:	f7ff ff35 	bl	80045ae <USBD_CtlError.constprop.0>
 8004744:	2503      	movs	r5, #3
 8004746:	e77c      	b.n	8004642 <USBD_StdDevReq+0x7e>
 8004748:	f890 329c 	ldrb.w	r3, [r0, #668]	; 0x29c
 800474c:	2b02      	cmp	r3, #2
 800474e:	b2da      	uxtb	r2, r3
 8004750:	d008      	beq.n	8004764 <USBD_StdDevReq+0x1a0>
 8004752:	2a03      	cmp	r2, #3
 8004754:	d015      	beq.n	8004782 <USBD_StdDevReq+0x1be>
 8004756:	f7ff ff2a 	bl	80045ae <USBD_CtlError.constprop.0>
 800475a:	7839      	ldrb	r1, [r7, #0]
 800475c:	4620      	mov	r0, r4
 800475e:	f7ff fe17 	bl	8004390 <USBD_ClrClassConfig>
 8004762:	e7ef      	b.n	8004744 <USBD_StdDevReq+0x180>
 8004764:	2e00      	cmp	r6, #0
 8004766:	d068      	beq.n	800483a <USBD_StdDevReq+0x276>
 8004768:	2101      	movs	r1, #1
 800476a:	6041      	str	r1, [r0, #4]
 800476c:	f7ff fe09 	bl	8004382 <USBD_SetClassConfig>
 8004770:	4605      	mov	r5, r0
 8004772:	4620      	mov	r0, r4
 8004774:	2d00      	cmp	r5, #0
 8004776:	f47f af62 	bne.w	800463e <USBD_StdDevReq+0x7a>
 800477a:	f000 f981 	bl	8004a80 <USBD_CtlSendStatus>
 800477e:	2303      	movs	r3, #3
 8004780:	e7d4      	b.n	800472c <USBD_StdDevReq+0x168>
 8004782:	b95e      	cbnz	r6, 800479c <USBD_StdDevReq+0x1d8>
 8004784:	2302      	movs	r3, #2
 8004786:	f880 329c 	strb.w	r3, [r0, #668]	; 0x29c
 800478a:	6046      	str	r6, [r0, #4]
 800478c:	4631      	mov	r1, r6
 800478e:	f7ff fdff 	bl	8004390 <USBD_ClrClassConfig>
 8004792:	4620      	mov	r0, r4
 8004794:	f000 f974 	bl	8004a80 <USBD_CtlSendStatus>
 8004798:	4635      	mov	r5, r6
 800479a:	e752      	b.n	8004642 <USBD_StdDevReq+0x7e>
 800479c:	6841      	ldr	r1, [r0, #4]
 800479e:	2901      	cmp	r1, #1
 80047a0:	d04b      	beq.n	800483a <USBD_StdDevReq+0x276>
 80047a2:	b2c9      	uxtb	r1, r1
 80047a4:	f7ff fdf4 	bl	8004390 <USBD_ClrClassConfig>
 80047a8:	7839      	ldrb	r1, [r7, #0]
 80047aa:	6061      	str	r1, [r4, #4]
 80047ac:	4620      	mov	r0, r4
 80047ae:	f7ff fde8 	bl	8004382 <USBD_SetClassConfig>
 80047b2:	4606      	mov	r6, r0
 80047b4:	2800      	cmp	r0, #0
 80047b6:	d040      	beq.n	800483a <USBD_StdDevReq+0x276>
 80047b8:	4620      	mov	r0, r4
 80047ba:	f7ff fef8 	bl	80045ae <USBD_CtlError.constprop.0>
 80047be:	7921      	ldrb	r1, [r4, #4]
 80047c0:	4620      	mov	r0, r4
 80047c2:	f7ff fde5 	bl	8004390 <USBD_ClrClassConfig>
 80047c6:	2302      	movs	r3, #2
 80047c8:	f884 329c 	strb.w	r3, [r4, #668]	; 0x29c
 80047cc:	e7e4      	b.n	8004798 <USBD_StdDevReq+0x1d4>
 80047ce:	88ca      	ldrh	r2, [r1, #6]
 80047d0:	2a01      	cmp	r2, #1
 80047d2:	f47f af33 	bne.w	800463c <USBD_StdDevReq+0x78>
 80047d6:	f890 129c 	ldrb.w	r1, [r0, #668]	; 0x29c
 80047da:	2902      	cmp	r1, #2
 80047dc:	b2cb      	uxtb	r3, r1
 80047de:	d805      	bhi.n	80047ec <USBD_StdDevReq+0x228>
 80047e0:	b133      	cbz	r3, 80047f0 <USBD_StdDevReq+0x22c>
 80047e2:	4601      	mov	r1, r0
 80047e4:	2300      	movs	r3, #0
 80047e6:	f841 3f08 	str.w	r3, [r1, #8]!
 80047ea:	e742      	b.n	8004672 <USBD_StdDevReq+0xae>
 80047ec:	2b03      	cmp	r3, #3
 80047ee:	d004      	beq.n	80047fa <USBD_StdDevReq+0x236>
 80047f0:	4620      	mov	r0, r4
 80047f2:	f7ff fedc 	bl	80045ae <USBD_CtlError.constprop.0>
 80047f6:	2500      	movs	r5, #0
 80047f8:	e723      	b.n	8004642 <USBD_StdDevReq+0x7e>
 80047fa:	1d01      	adds	r1, r0, #4
 80047fc:	e739      	b.n	8004672 <USBD_StdDevReq+0xae>
 80047fe:	f890 329c 	ldrb.w	r3, [r0, #668]	; 0x29c
 8004802:	3b01      	subs	r3, #1
 8004804:	2b02      	cmp	r3, #2
 8004806:	d8f3      	bhi.n	80047f0 <USBD_StdDevReq+0x22c>
 8004808:	88cb      	ldrh	r3, [r1, #6]
 800480a:	2b02      	cmp	r3, #2
 800480c:	f47f af16 	bne.w	800463c <USBD_StdDevReq+0x78>
 8004810:	2301      	movs	r3, #1
 8004812:	60c3      	str	r3, [r0, #12]
 8004814:	f8d0 32a4 	ldr.w	r3, [r0, #676]	; 0x2a4
 8004818:	b10b      	cbz	r3, 800481e <USBD_StdDevReq+0x25a>
 800481a:	2303      	movs	r3, #3
 800481c:	60c3      	str	r3, [r0, #12]
 800481e:	2202      	movs	r2, #2
 8004820:	f104 010c 	add.w	r1, r4, #12
 8004824:	4620      	mov	r0, r4
 8004826:	f000 f901 	bl	8004a2c <USBD_CtlSendData>
 800482a:	463d      	mov	r5, r7
 800482c:	e709      	b.n	8004642 <USBD_StdDevReq+0x7e>
 800482e:	884b      	ldrh	r3, [r1, #2]
 8004830:	2b01      	cmp	r3, #1
 8004832:	f47f af06 	bne.w	8004642 <USBD_StdDevReq+0x7e>
 8004836:	f8c4 32a4 	str.w	r3, [r4, #676]	; 0x2a4
 800483a:	4620      	mov	r0, r4
 800483c:	f000 f920 	bl	8004a80 <USBD_CtlSendStatus>
 8004840:	e6ff      	b.n	8004642 <USBD_StdDevReq+0x7e>
 8004842:	f890 329c 	ldrb.w	r3, [r0, #668]	; 0x29c
 8004846:	3b01      	subs	r3, #1
 8004848:	2b02      	cmp	r3, #2
 800484a:	d8d1      	bhi.n	80047f0 <USBD_StdDevReq+0x22c>
 800484c:	884b      	ldrh	r3, [r1, #2]
 800484e:	2b01      	cmp	r3, #1
 8004850:	f47f aef7 	bne.w	8004642 <USBD_StdDevReq+0x7e>
 8004854:	2300      	movs	r3, #0
 8004856:	e7ee      	b.n	8004836 <USBD_StdDevReq+0x272>
 8004858:	200003f0 	.word	0x200003f0

0800485c <USBD_StdItfReq>:
 800485c:	b570      	push	{r4, r5, r6, lr}
 800485e:	780b      	ldrb	r3, [r1, #0]
 8004860:	f003 0260 	and.w	r2, r3, #96	; 0x60
 8004864:	2a40      	cmp	r2, #64	; 0x40
 8004866:	4604      	mov	r4, r0
 8004868:	460e      	mov	r6, r1
 800486a:	d001      	beq.n	8004870 <USBD_StdItfReq+0x14>
 800486c:	065b      	lsls	r3, r3, #25
 800486e:	d416      	bmi.n	800489e <USBD_StdItfReq+0x42>
 8004870:	f894 329c 	ldrb.w	r3, [r4, #668]	; 0x29c
 8004874:	3b01      	subs	r3, #1
 8004876:	2b02      	cmp	r3, #2
 8004878:	d811      	bhi.n	800489e <USBD_StdItfReq+0x42>
 800487a:	7933      	ldrb	r3, [r6, #4]
 800487c:	2b01      	cmp	r3, #1
 800487e:	d80e      	bhi.n	800489e <USBD_StdItfReq+0x42>
 8004880:	f8d4 32b8 	ldr.w	r3, [r4, #696]	; 0x2b8
 8004884:	4631      	mov	r1, r6
 8004886:	689b      	ldr	r3, [r3, #8]
 8004888:	4620      	mov	r0, r4
 800488a:	4798      	blx	r3
 800488c:	88f3      	ldrh	r3, [r6, #6]
 800488e:	4605      	mov	r5, r0
 8004890:	b91b      	cbnz	r3, 800489a <USBD_StdItfReq+0x3e>
 8004892:	b910      	cbnz	r0, 800489a <USBD_StdItfReq+0x3e>
 8004894:	4620      	mov	r0, r4
 8004896:	f000 f8f3 	bl	8004a80 <USBD_CtlSendStatus>
 800489a:	4628      	mov	r0, r5
 800489c:	bd70      	pop	{r4, r5, r6, pc}
 800489e:	4620      	mov	r0, r4
 80048a0:	f7ff fe85 	bl	80045ae <USBD_CtlError.constprop.0>
 80048a4:	2500      	movs	r5, #0
 80048a6:	e7f8      	b.n	800489a <USBD_StdItfReq+0x3e>

080048a8 <USBD_StdEPReq>:
 80048a8:	b570      	push	{r4, r5, r6, lr}
 80048aa:	780b      	ldrb	r3, [r1, #0]
 80048ac:	f003 0360 	and.w	r3, r3, #96	; 0x60
 80048b0:	2b20      	cmp	r3, #32
 80048b2:	4604      	mov	r4, r0
 80048b4:	460d      	mov	r5, r1
 80048b6:	d053      	beq.n	8004960 <USBD_StdEPReq+0xb8>
 80048b8:	2b40      	cmp	r3, #64	; 0x40
 80048ba:	d051      	beq.n	8004960 <USBD_StdEPReq+0xb8>
 80048bc:	bb73      	cbnz	r3, 800491c <USBD_StdEPReq+0x74>
 80048be:	786b      	ldrb	r3, [r5, #1]
 80048c0:	888a      	ldrh	r2, [r1, #4]
 80048c2:	7909      	ldrb	r1, [r1, #4]
 80048c4:	2b01      	cmp	r3, #1
 80048c6:	d03a      	beq.n	800493e <USBD_StdEPReq+0x96>
 80048c8:	2b03      	cmp	r3, #3
 80048ca:	d020      	beq.n	800490e <USBD_StdEPReq+0x66>
 80048cc:	bb33      	cbnz	r3, 800491c <USBD_StdEPReq+0x74>
 80048ce:	f890 329c 	ldrb.w	r3, [r0, #668]	; 0x29c
 80048d2:	2b02      	cmp	r3, #2
 80048d4:	b2d8      	uxtb	r0, r3
 80048d6:	d054      	beq.n	8004982 <USBD_StdEPReq+0xda>
 80048d8:	2803      	cmp	r0, #3
 80048da:	d11f      	bne.n	800491c <USBD_StdEPReq+0x74>
 80048dc:	f001 030f 	and.w	r3, r1, #15
 80048e0:	f012 0f80 	tst.w	r2, #128	; 0x80
 80048e4:	f04f 0214 	mov.w	r2, #20
 80048e8:	fb02 4303 	mla	r3, r2, r3, r4
 80048ec:	d058      	beq.n	80049a0 <USBD_StdEPReq+0xf8>
 80048ee:	8c9b      	ldrh	r3, [r3, #36]	; 0x24
 80048f0:	b1a3      	cbz	r3, 800491c <USBD_StdEPReq+0x74>
 80048f2:	f001 057f 	and.w	r5, r1, #127	; 0x7f
 80048f6:	3501      	adds	r5, #1
 80048f8:	eb05 0585 	add.w	r5, r5, r5, lsl #2
 80048fc:	eb04 0585 	add.w	r5, r4, r5, lsl #2
 8004900:	f011 037f 	ands.w	r3, r1, #127	; 0x7f
 8004904:	d158      	bne.n	80049b8 <USBD_StdEPReq+0x110>
 8004906:	602b      	str	r3, [r5, #0]
 8004908:	2202      	movs	r2, #2
 800490a:	4629      	mov	r1, r5
 800490c:	e044      	b.n	8004998 <USBD_StdEPReq+0xf0>
 800490e:	f890 329c 	ldrb.w	r3, [r0, #668]	; 0x29c
 8004912:	2b02      	cmp	r3, #2
 8004914:	b2da      	uxtb	r2, r3
 8004916:	d02b      	beq.n	8004970 <USBD_StdEPReq+0xc8>
 8004918:	2a03      	cmp	r2, #3
 800491a:	d003      	beq.n	8004924 <USBD_StdEPReq+0x7c>
 800491c:	4620      	mov	r0, r4
 800491e:	f7ff fe46 	bl	80045ae <USBD_CtlError.constprop.0>
 8004922:	e00a      	b.n	800493a <USBD_StdEPReq+0x92>
 8004924:	886b      	ldrh	r3, [r5, #2]
 8004926:	b92b      	cbnz	r3, 8004934 <USBD_StdEPReq+0x8c>
 8004928:	064a      	lsls	r2, r1, #25
 800492a:	d003      	beq.n	8004934 <USBD_StdEPReq+0x8c>
 800492c:	88eb      	ldrh	r3, [r5, #6]
 800492e:	b90b      	cbnz	r3, 8004934 <USBD_StdEPReq+0x8c>
 8004930:	f000 fa86 	bl	8004e40 <USBD_LL_StallEP>
 8004934:	4620      	mov	r0, r4
 8004936:	f000 f8a3 	bl	8004a80 <USBD_CtlSendStatus>
 800493a:	2000      	movs	r0, #0
 800493c:	bd70      	pop	{r4, r5, r6, pc}
 800493e:	f890 329c 	ldrb.w	r3, [r0, #668]	; 0x29c
 8004942:	2b02      	cmp	r3, #2
 8004944:	b2da      	uxtb	r2, r3
 8004946:	d013      	beq.n	8004970 <USBD_StdEPReq+0xc8>
 8004948:	2a03      	cmp	r2, #3
 800494a:	d1e7      	bne.n	800491c <USBD_StdEPReq+0x74>
 800494c:	886b      	ldrh	r3, [r5, #2]
 800494e:	2b00      	cmp	r3, #0
 8004950:	d1f3      	bne.n	800493a <USBD_StdEPReq+0x92>
 8004952:	064e      	lsls	r6, r1, #25
 8004954:	d001      	beq.n	800495a <USBD_StdEPReq+0xb2>
 8004956:	f000 fa7c 	bl	8004e52 <USBD_LL_ClearStallEP>
 800495a:	4620      	mov	r0, r4
 800495c:	f000 f890 	bl	8004a80 <USBD_CtlSendStatus>
 8004960:	f8d4 32b8 	ldr.w	r3, [r4, #696]	; 0x2b8
 8004964:	4629      	mov	r1, r5
 8004966:	4620      	mov	r0, r4
 8004968:	689b      	ldr	r3, [r3, #8]
 800496a:	e8bd 4070 	ldmia.w	sp!, {r4, r5, r6, lr}
 800496e:	4718      	bx	r3
 8004970:	064b      	lsls	r3, r1, #25
 8004972:	d0d3      	beq.n	800491c <USBD_StdEPReq+0x74>
 8004974:	f000 fa64 	bl	8004e40 <USBD_LL_StallEP>
 8004978:	2180      	movs	r1, #128	; 0x80
 800497a:	4620      	mov	r0, r4
 800497c:	f000 fa60 	bl	8004e40 <USBD_LL_StallEP>
 8004980:	e7db      	b.n	800493a <USBD_StdEPReq+0x92>
 8004982:	0649      	lsls	r1, r1, #25
 8004984:	d1ca      	bne.n	800491c <USBD_StdEPReq+0x74>
 8004986:	0613      	lsls	r3, r2, #24
 8004988:	bf4c      	ite	mi
 800498a:	f104 0114 	addmi.w	r1, r4, #20
 800498e:	f504 71aa 	addpl.w	r1, r4, #340	; 0x154
 8004992:	2300      	movs	r3, #0
 8004994:	600b      	str	r3, [r1, #0]
 8004996:	2202      	movs	r2, #2
 8004998:	4620      	mov	r0, r4
 800499a:	f000 f847 	bl	8004a2c <USBD_CtlSendData>
 800499e:	e7cc      	b.n	800493a <USBD_StdEPReq+0x92>
 80049a0:	f8b3 3164 	ldrh.w	r3, [r3, #356]	; 0x164
 80049a4:	2b00      	cmp	r3, #0
 80049a6:	d0b9      	beq.n	800491c <USBD_StdEPReq+0x74>
 80049a8:	f001 057f 	and.w	r5, r1, #127	; 0x7f
 80049ac:	2314      	movs	r3, #20
 80049ae:	fb03 4505 	mla	r5, r3, r5, r4
 80049b2:	f505 75aa 	add.w	r5, r5, #340	; 0x154
 80049b6:	e7a3      	b.n	8004900 <USBD_StdEPReq+0x58>
 80049b8:	4620      	mov	r0, r4
 80049ba:	f000 fa53 	bl	8004e64 <USBD_LL_IsStallEP>
 80049be:	b108      	cbz	r0, 80049c4 <USBD_StdEPReq+0x11c>
 80049c0:	2301      	movs	r3, #1
 80049c2:	e7a0      	b.n	8004906 <USBD_StdEPReq+0x5e>
 80049c4:	6028      	str	r0, [r5, #0]
 80049c6:	e79f      	b.n	8004908 <USBD_StdEPReq+0x60>

080049c8 <USBD_ParseSetupRequest>:
 80049c8:	780b      	ldrb	r3, [r1, #0]
 80049ca:	7003      	strb	r3, [r0, #0]
 80049cc:	784b      	ldrb	r3, [r1, #1]
 80049ce:	7043      	strb	r3, [r0, #1]
 80049d0:	884b      	ldrh	r3, [r1, #2]
 80049d2:	8043      	strh	r3, [r0, #2]
 80049d4:	888b      	ldrh	r3, [r1, #4]
 80049d6:	8083      	strh	r3, [r0, #4]
 80049d8:	88cb      	ldrh	r3, [r1, #6]
 80049da:	80c3      	strh	r3, [r0, #6]
 80049dc:	4770      	bx	lr

080049de <USBD_CtlError>:
 80049de:	b510      	push	{r4, lr}
 80049e0:	2180      	movs	r1, #128	; 0x80
 80049e2:	4604      	mov	r4, r0
 80049e4:	f000 fa2c 	bl	8004e40 <USBD_LL_StallEP>
 80049e8:	4620      	mov	r0, r4
 80049ea:	2100      	movs	r1, #0
 80049ec:	e8bd 4010 	ldmia.w	sp!, {r4, lr}
 80049f0:	f000 ba26 	b.w	8004e40 <USBD_LL_StallEP>

080049f4 <USBD_GetString>:
 80049f4:	b530      	push	{r4, r5, lr}
 80049f6:	b188      	cbz	r0, 8004a1c <USBD_GetString+0x28>
 80049f8:	2400      	movs	r4, #0
 80049fa:	3801      	subs	r0, #1
 80049fc:	4623      	mov	r3, r4
 80049fe:	3401      	adds	r4, #1
 8004a00:	5d05      	ldrb	r5, [r0, r4]
 8004a02:	2d00      	cmp	r5, #0
 8004a04:	d1fa      	bne.n	80049fc <USBD_GetString+0x8>
 8004a06:	b2db      	uxtb	r3, r3
 8004a08:	3301      	adds	r3, #1
 8004a0a:	005b      	lsls	r3, r3, #1
 8004a0c:	8013      	strh	r3, [r2, #0]
 8004a0e:	700b      	strb	r3, [r1, #0]
 8004a10:	2303      	movs	r3, #3
 8004a12:	704b      	strb	r3, [r1, #1]
 8004a14:	2302      	movs	r3, #2
 8004a16:	f810 2f01 	ldrb.w	r2, [r0, #1]!
 8004a1a:	b902      	cbnz	r2, 8004a1e <USBD_GetString+0x2a>
 8004a1c:	bd30      	pop	{r4, r5, pc}
 8004a1e:	54ca      	strb	r2, [r1, r3]
 8004a20:	1c5a      	adds	r2, r3, #1
 8004a22:	b2d2      	uxtb	r2, r2
 8004a24:	3302      	adds	r3, #2
 8004a26:	548d      	strb	r5, [r1, r2]
 8004a28:	b2db      	uxtb	r3, r3
 8004a2a:	e7f4      	b.n	8004a16 <USBD_GetString+0x22>

08004a2c <USBD_CtlSendData>:
 8004a2c:	b510      	push	{r4, lr}
 8004a2e:	2402      	movs	r4, #2
 8004a30:	4613      	mov	r3, r2
 8004a32:	e9c0 2206 	strd	r2, r2, [r0, #24]
 8004a36:	f8c0 4294 	str.w	r4, [r0, #660]	; 0x294
 8004a3a:	460a      	mov	r2, r1
 8004a3c:	2100      	movs	r1, #0
 8004a3e:	f000 fa2d 	bl	8004e9c <USBD_LL_Transmit>
 8004a42:	2000      	movs	r0, #0
 8004a44:	bd10      	pop	{r4, pc}

08004a46 <USBD_CtlContinueSendData>:
 8004a46:	b508      	push	{r3, lr}
 8004a48:	4613      	mov	r3, r2
 8004a4a:	460a      	mov	r2, r1
 8004a4c:	2100      	movs	r1, #0
 8004a4e:	f000 fa25 	bl	8004e9c <USBD_LL_Transmit>
 8004a52:	2000      	movs	r0, #0
 8004a54:	bd08      	pop	{r3, pc}

08004a56 <USBD_CtlPrepareRx>:
 8004a56:	b510      	push	{r4, lr}
 8004a58:	2403      	movs	r4, #3
 8004a5a:	4613      	mov	r3, r2
 8004a5c:	e9c0 2256 	strd	r2, r2, [r0, #344]	; 0x158
 8004a60:	f8c0 4294 	str.w	r4, [r0, #660]	; 0x294
 8004a64:	460a      	mov	r2, r1
 8004a66:	2100      	movs	r1, #0
 8004a68:	f000 fa21 	bl	8004eae <USBD_LL_PrepareReceive>
 8004a6c:	2000      	movs	r0, #0
 8004a6e:	bd10      	pop	{r4, pc}

08004a70 <USBD_CtlContinueRx>:
 8004a70:	b508      	push	{r3, lr}
 8004a72:	4613      	mov	r3, r2
 8004a74:	460a      	mov	r2, r1
 8004a76:	2100      	movs	r1, #0
 8004a78:	f000 fa19 	bl	8004eae <USBD_LL_PrepareReceive>
 8004a7c:	2000      	movs	r0, #0
 8004a7e:	bd08      	pop	{r3, pc}

08004a80 <USBD_CtlSendStatus>:
 8004a80:	b508      	push	{r3, lr}
 8004a82:	2204      	movs	r2, #4
 8004a84:	2300      	movs	r3, #0
 8004a86:	f8c0 2294 	str.w	r2, [r0, #660]	; 0x294
 8004a8a:	4619      	mov	r1, r3
 8004a8c:	461a      	mov	r2, r3
 8004a8e:	f000 fa05 	bl	8004e9c <USBD_LL_Transmit>
 8004a92:	2000      	movs	r0, #0
 8004a94:	bd08      	pop	{r3, pc}

08004a96 <USBD_CtlReceiveStatus>:
 8004a96:	b508      	push	{r3, lr}
 8004a98:	2205      	movs	r2, #5
 8004a9a:	2300      	movs	r3, #0
 8004a9c:	f8c0 2294 	str.w	r2, [r0, #660]	; 0x294
 8004aa0:	4619      	mov	r1, r3
 8004aa2:	461a      	mov	r2, r3
 8004aa4:	f000 fa03 	bl	8004eae <USBD_LL_PrepareReceive>
 8004aa8:	2000      	movs	r0, #0
 8004aaa:	bd08      	pop	{r3, pc}

08004aac <MX_USB_Device_Init>:
 8004aac:	b508      	push	{r3, lr}
 8004aae:	490f      	ldr	r1, [pc, #60]	; (8004aec <MX_USB_Device_Init+0x40>)
 8004ab0:	480f      	ldr	r0, [pc, #60]	; (8004af0 <MX_USB_Device_Init+0x44>)
 8004ab2:	2200      	movs	r2, #0
 8004ab4:	f7ff fc3a 	bl	800432c <USBD_Init>
 8004ab8:	b108      	cbz	r0, 8004abe <MX_USB_Device_Init+0x12>
 8004aba:	f7fb fee1 	bl	8000880 <Error_Handler>
 8004abe:	490d      	ldr	r1, [pc, #52]	; (8004af4 <MX_USB_Device_Init+0x48>)
 8004ac0:	480b      	ldr	r0, [pc, #44]	; (8004af0 <MX_USB_Device_Init+0x44>)
 8004ac2:	f7ff fc46 	bl	8004352 <USBD_RegisterClass>
 8004ac6:	b108      	cbz	r0, 8004acc <MX_USB_Device_Init+0x20>
 8004ac8:	f7fb feda 	bl	8000880 <Error_Handler>
 8004acc:	490a      	ldr	r1, [pc, #40]	; (8004af8 <MX_USB_Device_Init+0x4c>)
 8004ace:	4808      	ldr	r0, [pc, #32]	; (8004af0 <MX_USB_Device_Init+0x44>)
 8004ad0:	f7ff fbe2 	bl	8004298 <USBD_CDC_RegisterInterface>
 8004ad4:	b108      	cbz	r0, 8004ada <MX_USB_Device_Init+0x2e>
 8004ad6:	f7fb fed3 	bl	8000880 <Error_Handler>
 8004ada:	4805      	ldr	r0, [pc, #20]	; (8004af0 <MX_USB_Device_Init+0x44>)
 8004adc:	f7ff fc4f 	bl	800437e <USBD_Start>
 8004ae0:	b118      	cbz	r0, 8004aea <MX_USB_Device_Init+0x3e>
 8004ae2:	e8bd 4008 	ldmia.w	sp!, {r3, lr}
 8004ae6:	f7fb becb 	b.w	8000880 <Error_Handler>
 8004aea:	bd08      	pop	{r3, pc}
 8004aec:	20000158 	.word	0x20000158
 8004af0:	200003f4 	.word	0x200003f4
 8004af4:	20000034 	.word	0x20000034
 8004af8:	20000144 	.word	0x20000144

08004afc <CDC_DeInit_FS>:
 8004afc:	2000      	movs	r0, #0
 8004afe:	4770      	bx	lr

08004b00 <CDC_Control_FS>:
 8004b00:	2000      	movs	r0, #0
 8004b02:	4770      	bx	lr

08004b04 <CDC_TransmitCplt_FS>:
 8004b04:	2000      	movs	r0, #0
 8004b06:	4770      	bx	lr

08004b08 <CDC_Receive_FS>:
 8004b08:	b538      	push	{r3, r4, r5, lr}
 8004b0a:	4d06      	ldr	r5, [pc, #24]	; (8004b24 <CDC_Receive_FS+0x1c>)
 8004b0c:	4604      	mov	r4, r0
 8004b0e:	f7fb fb83 	bl	8000218 <CDC_On_Receive>
 8004b12:	4621      	mov	r1, r4
 8004b14:	4628      	mov	r0, r5
 8004b16:	f7ff fbd1 	bl	80042bc <USBD_CDC_SetRxBuffer>
 8004b1a:	4628      	mov	r0, r5
 8004b1c:	f7ff fbef 	bl	80042fe <USBD_CDC_ReceivePacket>
 8004b20:	2000      	movs	r0, #0
 8004b22:	bd38      	pop	{r3, r4, r5, pc}
 8004b24:	200003f4 	.word	0x200003f4

08004b28 <CDC_Init_FS>:
 8004b28:	b510      	push	{r4, lr}
 8004b2a:	4c06      	ldr	r4, [pc, #24]	; (8004b44 <CDC_Init_FS+0x1c>)
 8004b2c:	4906      	ldr	r1, [pc, #24]	; (8004b48 <CDC_Init_FS+0x20>)
 8004b2e:	2200      	movs	r2, #0
 8004b30:	4620      	mov	r0, r4
 8004b32:	f7ff fbb8 	bl	80042a6 <USBD_CDC_SetTxBuffer>
 8004b36:	4905      	ldr	r1, [pc, #20]	; (8004b4c <CDC_Init_FS+0x24>)
 8004b38:	4620      	mov	r0, r4
 8004b3a:	f7ff fbbf 	bl	80042bc <USBD_CDC_SetRxBuffer>
 8004b3e:	2000      	movs	r0, #0
 8004b40:	bd10      	pop	{r4, pc}
 8004b42:	bf00      	nop
 8004b44:	200003f4 	.word	0x200003f4
 8004b48:	20000aac 	.word	0x20000aac
 8004b4c:	200006c4 	.word	0x200006c4

08004b50 <CDC_Transmit_FS>:
 8004b50:	b510      	push	{r4, lr}
 8004b52:	4c09      	ldr	r4, [pc, #36]	; (8004b78 <CDC_Transmit_FS+0x28>)
 8004b54:	f8d4 32bc 	ldr.w	r3, [r4, #700]	; 0x2bc
 8004b58:	f8d3 3214 	ldr.w	r3, [r3, #532]	; 0x214
 8004b5c:	460a      	mov	r2, r1
 8004b5e:	b943      	cbnz	r3, 8004b72 <CDC_Transmit_FS+0x22>
 8004b60:	4601      	mov	r1, r0
 8004b62:	4620      	mov	r0, r4
 8004b64:	f7ff fb9f 	bl	80042a6 <USBD_CDC_SetTxBuffer>
 8004b68:	4620      	mov	r0, r4
 8004b6a:	e8bd 4010 	ldmia.w	sp!, {r4, lr}
 8004b6e:	f7ff bbae 	b.w	80042ce <USBD_CDC_TransmitPacket>
 8004b72:	2001      	movs	r0, #1
 8004b74:	bd10      	pop	{r4, pc}
 8004b76:	bf00      	nop
 8004b78:	200003f4 	.word	0x200003f4

08004b7c <USBD_CDC_DeviceDescriptor>:
 8004b7c:	2312      	movs	r3, #18
 8004b7e:	4801      	ldr	r0, [pc, #4]	; (8004b84 <USBD_CDC_DeviceDescriptor+0x8>)
 8004b80:	800b      	strh	r3, [r1, #0]
 8004b82:	4770      	bx	lr
 8004b84:	20000178 	.word	0x20000178

08004b88 <USBD_CDC_LangIDStrDescriptor>:
 8004b88:	2304      	movs	r3, #4
 8004b8a:	4801      	ldr	r0, [pc, #4]	; (8004b90 <USBD_CDC_LangIDStrDescriptor+0x8>)
 8004b8c:	800b      	strh	r3, [r1, #0]
 8004b8e:	4770      	bx	lr
 8004b90:	2000018c 	.word	0x2000018c

08004b94 <IntToUnicode>:
 8004b94:	2300      	movs	r3, #0
 8004b96:	b570      	push	{r4, r5, r6, lr}
 8004b98:	1c4d      	adds	r5, r1, #1
 8004b9a:	461e      	mov	r6, r3
 8004b9c:	0f04      	lsrs	r4, r0, #28
 8004b9e:	f1b0 4f20 	cmp.w	r0, #2684354560	; 0xa0000000
 8004ba2:	bf34      	ite	cc
 8004ba4:	3430      	addcc	r4, #48	; 0x30
 8004ba6:	3437      	addcs	r4, #55	; 0x37
 8004ba8:	f801 4013 	strb.w	r4, [r1, r3, lsl #1]
 8004bac:	f805 6013 	strb.w	r6, [r5, r3, lsl #1]
 8004bb0:	3301      	adds	r3, #1
 8004bb2:	b2dc      	uxtb	r4, r3
 8004bb4:	42a2      	cmp	r2, r4
 8004bb6:	ea4f 1000 	mov.w	r0, r0, lsl #4
 8004bba:	d8ef      	bhi.n	8004b9c <IntToUnicode+0x8>
 8004bbc:	bd70      	pop	{r4, r5, r6, pc}
	...

08004bc0 <USBD_CDC_SerialStrDescriptor>:
 8004bc0:	231a      	movs	r3, #26
 8004bc2:	b510      	push	{r4, lr}
 8004bc4:	800b      	strh	r3, [r1, #0]
 8004bc6:	4b0a      	ldr	r3, [pc, #40]	; (8004bf0 <USBD_CDC_SerialStrDescriptor+0x30>)
 8004bc8:	f8d3 0590 	ldr.w	r0, [r3, #1424]	; 0x590
 8004bcc:	f8d3 2598 	ldr.w	r2, [r3, #1432]	; 0x598
 8004bd0:	1880      	adds	r0, r0, r2
 8004bd2:	d00a      	beq.n	8004bea <USBD_CDC_SerialStrDescriptor+0x2a>
 8004bd4:	f8d3 4594 	ldr.w	r4, [r3, #1428]	; 0x594
 8004bd8:	4906      	ldr	r1, [pc, #24]	; (8004bf4 <USBD_CDC_SerialStrDescriptor+0x34>)
 8004bda:	2208      	movs	r2, #8
 8004bdc:	f7ff ffda 	bl	8004b94 <IntToUnicode>
 8004be0:	2204      	movs	r2, #4
 8004be2:	3110      	adds	r1, #16
 8004be4:	4620      	mov	r0, r4
 8004be6:	f7ff ffd5 	bl	8004b94 <IntToUnicode>
 8004bea:	4803      	ldr	r0, [pc, #12]	; (8004bf8 <USBD_CDC_SerialStrDescriptor+0x38>)
 8004bec:	bd10      	pop	{r4, pc}
 8004bee:	bf00      	nop
 8004bf0:	1fff7000 	.word	0x1fff7000
 8004bf4:	20000192 	.word	0x20000192
 8004bf8:	20000190 	.word	0x20000190

08004bfc <USBD_CDC_ManufacturerStrDescriptor>:
 8004bfc:	b510      	push	{r4, lr}
 8004bfe:	4c04      	ldr	r4, [pc, #16]	; (8004c10 <USBD_CDC_ManufacturerStrDescriptor+0x14>)
 8004c00:	4804      	ldr	r0, [pc, #16]	; (8004c14 <USBD_CDC_ManufacturerStrDescriptor+0x18>)
 8004c02:	460a      	mov	r2, r1
 8004c04:	4621      	mov	r1, r4
 8004c06:	f7ff fef5 	bl	80049f4 <USBD_GetString>
 8004c0a:	4620      	mov	r0, r4
 8004c0c:	bd10      	pop	{r4, pc}
 8004c0e:	bf00      	nop
 8004c10:	20000e94 	.word	0x20000e94
 8004c14:	08004f9c 	.word	0x08004f9c

08004c18 <USBD_CDC_ProductStrDescriptor>:
 8004c18:	b510      	push	{r4, lr}
 8004c1a:	4c04      	ldr	r4, [pc, #16]	; (8004c2c <USBD_CDC_ProductStrDescriptor+0x14>)
 8004c1c:	4804      	ldr	r0, [pc, #16]	; (8004c30 <USBD_CDC_ProductStrDescriptor+0x18>)
 8004c1e:	460a      	mov	r2, r1
 8004c20:	4621      	mov	r1, r4
 8004c22:	f7ff fee7 	bl	80049f4 <USBD_GetString>
 8004c26:	4620      	mov	r0, r4
 8004c28:	bd10      	pop	{r4, pc}
 8004c2a:	bf00      	nop
 8004c2c:	20000e94 	.word	0x20000e94
 8004c30:	08004faf 	.word	0x08004faf

08004c34 <USBD_CDC_ConfigStrDescriptor>:
 8004c34:	b510      	push	{r4, lr}
 8004c36:	4c04      	ldr	r4, [pc, #16]	; (8004c48 <USBD_CDC_ConfigStrDescriptor+0x14>)
 8004c38:	4804      	ldr	r0, [pc, #16]	; (8004c4c <USBD_CDC_ConfigStrDescriptor+0x18>)
 8004c3a:	460a      	mov	r2, r1
 8004c3c:	4621      	mov	r1, r4
 8004c3e:	f7ff fed9 	bl	80049f4 <USBD_GetString>
 8004c42:	4620      	mov	r0, r4
 8004c44:	bd10      	pop	{r4, pc}
 8004c46:	bf00      	nop
 8004c48:	20000e94 	.word	0x20000e94
 8004c4c:	08004fc5 	.word	0x08004fc5

08004c50 <USBD_CDC_InterfaceStrDescriptor>:
 8004c50:	b510      	push	{r4, lr}
 8004c52:	4c04      	ldr	r4, [pc, #16]	; (8004c64 <USBD_CDC_InterfaceStrDescriptor+0x14>)
 8004c54:	4804      	ldr	r0, [pc, #16]	; (8004c68 <USBD_CDC_InterfaceStrDescriptor+0x18>)
 8004c56:	460a      	mov	r2, r1
 8004c58:	4621      	mov	r1, r4
 8004c5a:	f7ff fecb 	bl	80049f4 <USBD_GetString>
 8004c5e:	4620      	mov	r0, r4
 8004c60:	bd10      	pop	{r4, pc}
 8004c62:	bf00      	nop
 8004c64:	20000e94 	.word	0x20000e94
 8004c68:	08004fd0 	.word	0x08004fd0

08004c6c <USBD_Get_USB_Status>:
 8004c6c:	2803      	cmp	r0, #3
 8004c6e:	bf9a      	itte	ls
 8004c70:	4b01      	ldrls	r3, [pc, #4]	; (8004c78 <USBD_Get_USB_Status+0xc>)
 8004c72:	5c18      	ldrbls	r0, [r3, r0]
 8004c74:	2003      	movhi	r0, #3
 8004c76:	4770      	bx	lr
 8004c78:	08004fde 	.word	0x08004fde

08004c7c <HAL_PCD_MspInit>:
 8004c7c:	b510      	push	{r4, lr}
 8004c7e:	4604      	mov	r4, r0
 8004c80:	b092      	sub	sp, #72	; 0x48
 8004c82:	2244      	movs	r2, #68	; 0x44
 8004c84:	2100      	movs	r1, #0
 8004c86:	a801      	add	r0, sp, #4
 8004c88:	f000 f96c 	bl	8004f64 <memset>
 8004c8c:	6822      	ldr	r2, [r4, #0]
 8004c8e:	4b10      	ldr	r3, [pc, #64]	; (8004cd0 <HAL_PCD_MspInit+0x54>)
 8004c90:	429a      	cmp	r2, r3
 8004c92:	d11a      	bne.n	8004cca <HAL_PCD_MspInit+0x4e>
 8004c94:	f44f 5300 	mov.w	r3, #8192	; 0x2000
 8004c98:	a801      	add	r0, sp, #4
 8004c9a:	9301      	str	r3, [sp, #4]
 8004c9c:	f7fd fbe6 	bl	800246c <HAL_RCCEx_PeriphCLKConfig>
 8004ca0:	b108      	cbz	r0, 8004ca6 <HAL_PCD_MspInit+0x2a>
 8004ca2:	f7fb fded 	bl	8000880 <Error_Handler>
 8004ca6:	4b0b      	ldr	r3, [pc, #44]	; (8004cd4 <HAL_PCD_MspInit+0x58>)
 8004ca8:	6d9a      	ldr	r2, [r3, #88]	; 0x58
 8004caa:	f442 0200 	orr.w	r2, r2, #8388608	; 0x800000
 8004cae:	659a      	str	r2, [r3, #88]	; 0x58
 8004cb0:	6d9b      	ldr	r3, [r3, #88]	; 0x58
 8004cb2:	2200      	movs	r2, #0
 8004cb4:	f403 0300 	and.w	r3, r3, #8388608	; 0x800000
 8004cb8:	9300      	str	r3, [sp, #0]
 8004cba:	2014      	movs	r0, #20
 8004cbc:	4611      	mov	r1, r2
 8004cbe:	9b00      	ldr	r3, [sp, #0]
 8004cc0:	f7fc f810 	bl	8000ce4 <HAL_NVIC_SetPriority>
 8004cc4:	2014      	movs	r0, #20
 8004cc6:	f7fc f83f 	bl	8000d48 <HAL_NVIC_EnableIRQ>
 8004cca:	b012      	add	sp, #72	; 0x48
 8004ccc:	bd10      	pop	{r4, pc}
 8004cce:	bf00      	nop
 8004cd0:	40005c00 	.word	0x40005c00
 8004cd4:	40021000 	.word	0x40021000

08004cd8 <HAL_PCD_SetupStageCallback>:
 8004cd8:	f500 712c 	add.w	r1, r0, #688	; 0x2b0
 8004cdc:	f8d0 02f0 	ldr.w	r0, [r0, #752]	; 0x2f0
 8004ce0:	f7ff bb5e 	b.w	80043a0 <USBD_LL_SetupStage>

08004ce4 <HAL_PCD_DataOutStageCallback>:
 8004ce4:	2328      	movs	r3, #40	; 0x28
 8004ce6:	fb03 0301 	mla	r3, r3, r1, r0
 8004cea:	f8d0 02f0 	ldr.w	r0, [r0, #752]	; 0x2f0
 8004cee:	f8d3 217c 	ldr.w	r2, [r3, #380]	; 0x17c
 8004cf2:	f7ff bb85 	b.w	8004400 <USBD_LL_DataOutStage>

08004cf6 <HAL_PCD_DataInStageCallback>:
 8004cf6:	2328      	movs	r3, #40	; 0x28
 8004cf8:	fb03 0301 	mla	r3, r3, r1, r0
 8004cfc:	f8d0 02f0 	ldr.w	r0, [r0, #752]	; 0x2f0
 8004d00:	6bda      	ldr	r2, [r3, #60]	; 0x3c
 8004d02:	f7ff bbad 	b.w	8004460 <USBD_LL_DataInStage>

08004d06 <HAL_PCD_SOFCallback>:
 8004d06:	f8d0 02f0 	ldr.w	r0, [r0, #752]	; 0x2f0
 8004d0a:	f7ff bc3f 	b.w	800458c <USBD_LL_SOF>

08004d0e <HAL_PCD_ResetCallback>:
 8004d0e:	6883      	ldr	r3, [r0, #8]
 8004d10:	2b02      	cmp	r3, #2
 8004d12:	b510      	push	{r4, lr}
 8004d14:	4604      	mov	r4, r0
 8004d16:	d001      	beq.n	8004d1c <HAL_PCD_ResetCallback+0xe>
 8004d18:	f7fb fdb2 	bl	8000880 <Error_Handler>
 8004d1c:	f8d4 02f0 	ldr.w	r0, [r4, #752]	; 0x2f0
 8004d20:	2101      	movs	r1, #1
 8004d22:	f7ff fc1b 	bl	800455c <USBD_LL_SetSpeed>
 8004d26:	f8d4 02f0 	ldr.w	r0, [r4, #752]	; 0x2f0
 8004d2a:	e8bd 4010 	ldmia.w	sp!, {r4, lr}
 8004d2e:	f7ff bbe9 	b.w	8004504 <USBD_LL_Reset>
	...

08004d34 <HAL_PCD_SuspendCallback>:
 8004d34:	b510      	push	{r4, lr}
 8004d36:	4604      	mov	r4, r0
 8004d38:	f8d0 02f0 	ldr.w	r0, [r0, #752]	; 0x2f0
 8004d3c:	f7ff fc11 	bl	8004562 <USBD_LL_Suspend>
 8004d40:	69a3      	ldr	r3, [r4, #24]
 8004d42:	b123      	cbz	r3, 8004d4e <HAL_PCD_SuspendCallback+0x1a>
 8004d44:	4a02      	ldr	r2, [pc, #8]	; (8004d50 <HAL_PCD_SuspendCallback+0x1c>)
 8004d46:	6913      	ldr	r3, [r2, #16]
 8004d48:	f043 0306 	orr.w	r3, r3, #6
 8004d4c:	6113      	str	r3, [r2, #16]
 8004d4e:	bd10      	pop	{r4, pc}
 8004d50:	e000ed00 	.word	0xe000ed00

08004d54 <HAL_PCD_ResumeCallback>:
 8004d54:	6983      	ldr	r3, [r0, #24]
 8004d56:	b510      	push	{r4, lr}
 8004d58:	4604      	mov	r4, r0
 8004d5a:	b133      	cbz	r3, 8004d6a <HAL_PCD_ResumeCallback+0x16>
 8004d5c:	4a06      	ldr	r2, [pc, #24]	; (8004d78 <HAL_PCD_ResumeCallback+0x24>)
 8004d5e:	6913      	ldr	r3, [r2, #16]
 8004d60:	f023 0306 	bic.w	r3, r3, #6
 8004d64:	6113      	str	r3, [r2, #16]
 8004d66:	f7fb fb07 	bl	8000378 <SystemClock_Config>
 8004d6a:	f8d4 02f0 	ldr.w	r0, [r4, #752]	; 0x2f0
 8004d6e:	e8bd 4010 	ldmia.w	sp!, {r4, lr}
 8004d72:	f7ff bc00 	b.w	8004576 <USBD_LL_Resume>
 8004d76:	bf00      	nop
 8004d78:	e000ed00 	.word	0xe000ed00

08004d7c <USBD_LL_Init>:
 8004d7c:	b510      	push	{r4, lr}
 8004d7e:	4a1f      	ldr	r2, [pc, #124]	; (8004dfc <USBD_LL_Init+0x80>)
 8004d80:	4604      	mov	r4, r0
 8004d82:	481f      	ldr	r0, [pc, #124]	; (8004e00 <USBD_LL_Init+0x84>)
 8004d84:	2308      	movs	r3, #8
 8004d86:	e9c0 2300 	strd	r2, r3, [r0]
 8004d8a:	2302      	movs	r3, #2
 8004d8c:	f8c0 42f0 	str.w	r4, [r0, #752]	; 0x2f0
 8004d90:	6083      	str	r3, [r0, #8]
 8004d92:	6103      	str	r3, [r0, #16]
 8004d94:	f8c4 02c4 	str.w	r0, [r4, #708]	; 0x2c4
 8004d98:	2300      	movs	r3, #0
 8004d9a:	e9c0 3305 	strd	r3, r3, [r0, #20]
 8004d9e:	e9c0 3307 	strd	r3, r3, [r0, #28]
 8004da2:	f7fc f920 	bl	8000fe6 <HAL_PCD_Init>
 8004da6:	b108      	cbz	r0, 8004dac <USBD_LL_Init+0x30>
 8004da8:	f7fb fd6a 	bl	8000880 <Error_Handler>
 8004dac:	2200      	movs	r2, #0
 8004dae:	4611      	mov	r1, r2
 8004db0:	f8d4 02c4 	ldr.w	r0, [r4, #708]	; 0x2c4
 8004db4:	2318      	movs	r3, #24
 8004db6:	f7fc ff94 	bl	8001ce2 <HAL_PCDEx_PMAConfig>
 8004dba:	f8d4 02c4 	ldr.w	r0, [r4, #708]	; 0x2c4
 8004dbe:	2358      	movs	r3, #88	; 0x58
 8004dc0:	2200      	movs	r2, #0
 8004dc2:	2180      	movs	r1, #128	; 0x80
 8004dc4:	f7fc ff8d 	bl	8001ce2 <HAL_PCDEx_PMAConfig>
 8004dc8:	f8d4 02c4 	ldr.w	r0, [r4, #708]	; 0x2c4
 8004dcc:	23c0      	movs	r3, #192	; 0xc0
 8004dce:	2200      	movs	r2, #0
 8004dd0:	2181      	movs	r1, #129	; 0x81
 8004dd2:	f7fc ff86 	bl	8001ce2 <HAL_PCDEx_PMAConfig>
 8004dd6:	f8d4 02c4 	ldr.w	r0, [r4, #708]	; 0x2c4
 8004dda:	f44f 7388 	mov.w	r3, #272	; 0x110
 8004dde:	2200      	movs	r2, #0
 8004de0:	2101      	movs	r1, #1
 8004de2:	f7fc ff7e 	bl	8001ce2 <HAL_PCDEx_PMAConfig>
 8004de6:	f8d4 02c4 	ldr.w	r0, [r4, #708]	; 0x2c4
 8004dea:	f44f 7380 	mov.w	r3, #256	; 0x100
 8004dee:	2200      	movs	r2, #0
 8004df0:	2182      	movs	r1, #130	; 0x82
 8004df2:	f7fc ff76 	bl	8001ce2 <HAL_PCDEx_PMAConfig>
 8004df6:	2000      	movs	r0, #0
 8004df8:	bd10      	pop	{r4, pc}
 8004dfa:	bf00      	nop
 8004dfc:	40005c00 	.word	0x40005c00
 8004e00:	20001094 	.word	0x20001094

08004e04 <USBD_LL_Start>:
 8004e04:	b508      	push	{r3, lr}
 8004e06:	f8d0 02c4 	ldr.w	r0, [r0, #708]	; 0x2c4
 8004e0a:	f7fc f94a 	bl	80010a2 <HAL_PCD_Start>
 8004e0e:	e8bd 4008 	ldmia.w	sp!, {r3, lr}
 8004e12:	f7ff bf2b 	b.w	8004c6c <USBD_Get_USB_Status>

08004e16 <USBD_LL_OpenEP>:
 8004e16:	b510      	push	{r4, lr}
 8004e18:	4614      	mov	r4, r2
 8004e1a:	f8d0 02c4 	ldr.w	r0, [r0, #708]	; 0x2c4
 8004e1e:	461a      	mov	r2, r3
 8004e20:	4623      	mov	r3, r4
 8004e22:	f7fc fe55 	bl	8001ad0 <HAL_PCD_EP_Open>
 8004e26:	e8bd 4010 	ldmia.w	sp!, {r4, lr}
 8004e2a:	f7ff bf1f 	b.w	8004c6c <USBD_Get_USB_Status>

08004e2e <USBD_LL_CloseEP>:
 8004e2e:	b508      	push	{r3, lr}
 8004e30:	f8d0 02c4 	ldr.w	r0, [r0, #708]	; 0x2c4
 8004e34:	f7fc fe82 	bl	8001b3c <HAL_PCD_EP_Close>
 8004e38:	e8bd 4008 	ldmia.w	sp!, {r3, lr}
 8004e3c:	f7ff bf16 	b.w	8004c6c <USBD_Get_USB_Status>

08004e40 <USBD_LL_StallEP>:
 8004e40:	b508      	push	{r3, lr}
 8004e42:	f8d0 02c4 	ldr.w	r0, [r0, #708]	; 0x2c4
 8004e46:	f7fc fee4 	bl	8001c12 <HAL_PCD_EP_SetStall>
 8004e4a:	e8bd 4008 	ldmia.w	sp!, {r3, lr}
 8004e4e:	f7ff bf0d 	b.w	8004c6c <USBD_Get_USB_Status>

08004e52 <USBD_LL_ClearStallEP>:
 8004e52:	b508      	push	{r3, lr}
 8004e54:	f8d0 02c4 	ldr.w	r0, [r0, #708]	; 0x2c4
 8004e58:	f7fc ff0d 	bl	8001c76 <HAL_PCD_EP_ClrStall>
 8004e5c:	e8bd 4008 	ldmia.w	sp!, {r3, lr}
 8004e60:	f7ff bf04 	b.w	8004c6c <USBD_Get_USB_Status>

08004e64 <USBD_LL_IsStallEP>:
 8004e64:	f011 0f80 	tst.w	r1, #128	; 0x80
 8004e68:	f8d0 32c4 	ldr.w	r3, [r0, #708]	; 0x2c4
 8004e6c:	f04f 0228 	mov.w	r2, #40	; 0x28
 8004e70:	bf1d      	ittte	ne
 8004e72:	f001 017f 	andne.w	r1, r1, #127	; 0x7f
 8004e76:	fb01 2102 	mlane	r1, r1, r2, r2
 8004e7a:	185b      	addne	r3, r3, r1
 8004e7c:	fb02 3101 	mlaeq	r1, r2, r1, r3
 8004e80:	bf14      	ite	ne
 8004e82:	7898      	ldrbne	r0, [r3, #2]
 8004e84:	f891 016a 	ldrbeq.w	r0, [r1, #362]	; 0x16a
 8004e88:	4770      	bx	lr

08004e8a <USBD_LL_SetUSBAddress>:
 8004e8a:	b508      	push	{r3, lr}
 8004e8c:	f8d0 02c4 	ldr.w	r0, [r0, #708]	; 0x2c4
 8004e90:	f7fc f91c 	bl	80010cc <HAL_PCD_SetAddress>
 8004e94:	e8bd 4008 	ldmia.w	sp!, {r3, lr}
 8004e98:	f7ff bee8 	b.w	8004c6c <USBD_Get_USB_Status>

08004e9c <USBD_LL_Transmit>:
 8004e9c:	b508      	push	{r3, lr}
 8004e9e:	f8d0 02c4 	ldr.w	r0, [r0, #708]	; 0x2c4
 8004ea2:	f7fc fe96 	bl	8001bd2 <HAL_PCD_EP_Transmit>
 8004ea6:	e8bd 4008 	ldmia.w	sp!, {r3, lr}
 8004eaa:	f7ff bedf 	b.w	8004c6c <USBD_Get_USB_Status>

08004eae <USBD_LL_PrepareReceive>:
 8004eae:	b508      	push	{r3, lr}
 8004eb0:	f8d0 02c4 	ldr.w	r0, [r0, #708]	; 0x2c4
 8004eb4:	f7fc fe6f 	bl	8001b96 <HAL_PCD_EP_Receive>
 8004eb8:	e8bd 4008 	ldmia.w	sp!, {r3, lr}
 8004ebc:	f7ff bed6 	b.w	8004c6c <USBD_Get_USB_Status>

08004ec0 <USBD_LL_GetRxDataSize>:
 8004ec0:	f8d0 02c4 	ldr.w	r0, [r0, #708]	; 0x2c4
 8004ec4:	f7fc be7d 	b.w	8001bc2 <HAL_PCD_EP_GetRxCount>

08004ec8 <HAL_PCDEx_LPM_Callback>:
 8004ec8:	b510      	push	{r4, lr}
 8004eca:	4604      	mov	r4, r0
 8004ecc:	b111      	cbz	r1, 8004ed4 <HAL_PCDEx_LPM_Callback+0xc>
 8004ece:	2901      	cmp	r1, #1
 8004ed0:	d00f      	beq.n	8004ef2 <HAL_PCDEx_LPM_Callback+0x2a>
 8004ed2:	bd10      	pop	{r4, pc}
 8004ed4:	6983      	ldr	r3, [r0, #24]
 8004ed6:	b133      	cbz	r3, 8004ee6 <HAL_PCDEx_LPM_Callback+0x1e>
 8004ed8:	f7fb fa4e 	bl	8000378 <SystemClock_Config>
 8004edc:	4a0b      	ldr	r2, [pc, #44]	; (8004f0c <HAL_PCDEx_LPM_Callback+0x44>)
 8004ede:	6913      	ldr	r3, [r2, #16]
 8004ee0:	f023 0306 	bic.w	r3, r3, #6
 8004ee4:	6113      	str	r3, [r2, #16]
 8004ee6:	f8d4 02f0 	ldr.w	r0, [r4, #752]	; 0x2f0
 8004eea:	e8bd 4010 	ldmia.w	sp!, {r4, lr}
 8004eee:	f7ff bb42 	b.w	8004576 <USBD_LL_Resume>
 8004ef2:	f8d0 02f0 	ldr.w	r0, [r0, #752]	; 0x2f0
 8004ef6:	f7ff fb34 	bl	8004562 <USBD_LL_Suspend>
 8004efa:	69a3      	ldr	r3, [r4, #24]
 8004efc:	2b00      	cmp	r3, #0
 8004efe:	d0e8      	beq.n	8004ed2 <HAL_PCDEx_LPM_Callback+0xa>
 8004f00:	4a02      	ldr	r2, [pc, #8]	; (8004f0c <HAL_PCDEx_LPM_Callback+0x44>)
 8004f02:	6913      	ldr	r3, [r2, #16]
 8004f04:	f043 0306 	orr.w	r3, r3, #6
 8004f08:	6113      	str	r3, [r2, #16]
 8004f0a:	e7e2      	b.n	8004ed2 <HAL_PCDEx_LPM_Callback+0xa>
 8004f0c:	e000ed00 	.word	0xe000ed00

08004f10 <USBD_static_malloc>:
 8004f10:	4800      	ldr	r0, [pc, #0]	; (8004f14 <USBD_static_malloc+0x4>)
 8004f12:	4770      	bx	lr
 8004f14:	20001388 	.word	0x20001388

08004f18 <USBD_static_free>:
 8004f18:	4770      	bx	lr
	...

08004f1c <__libc_init_array>:
 8004f1c:	b570      	push	{r4, r5, r6, lr}
 8004f1e:	4d0d      	ldr	r5, [pc, #52]	; (8004f54 <__libc_init_array+0x38>)
 8004f20:	4c0d      	ldr	r4, [pc, #52]	; (8004f58 <__libc_init_array+0x3c>)
 8004f22:	1b64      	subs	r4, r4, r5
 8004f24:	10a4      	asrs	r4, r4, #2
 8004f26:	2600      	movs	r6, #0
 8004f28:	42a6      	cmp	r6, r4
 8004f2a:	d109      	bne.n	8004f40 <__libc_init_array+0x24>
 8004f2c:	4d0b      	ldr	r5, [pc, #44]	; (8004f5c <__libc_init_array+0x40>)
 8004f2e:	4c0c      	ldr	r4, [pc, #48]	; (8004f60 <__libc_init_array+0x44>)
 8004f30:	f000 f820 	bl	8004f74 <_init>
 8004f34:	1b64      	subs	r4, r4, r5
 8004f36:	10a4      	asrs	r4, r4, #2
 8004f38:	2600      	movs	r6, #0
 8004f3a:	42a6      	cmp	r6, r4
 8004f3c:	d105      	bne.n	8004f4a <__libc_init_array+0x2e>
 8004f3e:	bd70      	pop	{r4, r5, r6, pc}
 8004f40:	f855 3b04 	ldr.w	r3, [r5], #4
 8004f44:	4798      	blx	r3
 8004f46:	3601      	adds	r6, #1
 8004f48:	e7ee      	b.n	8004f28 <__libc_init_array+0xc>
 8004f4a:	f855 3b04 	ldr.w	r3, [r5], #4
 8004f4e:	4798      	blx	r3
 8004f50:	3601      	adds	r6, #1
 8004f52:	e7f2      	b.n	8004f3a <__libc_init_array+0x1e>
 8004f54:	08004fe4 	.word	0x08004fe4
 8004f58:	08004fe4 	.word	0x08004fe4
 8004f5c:	08004fe4 	.word	0x08004fe4
 8004f60:	08004fe8 	.word	0x08004fe8

08004f64 <memset>:
 8004f64:	4402      	add	r2, r0
 8004f66:	4603      	mov	r3, r0
 8004f68:	4293      	cmp	r3, r2
 8004f6a:	d100      	bne.n	8004f6e <memset+0xa>
 8004f6c:	4770      	bx	lr
 8004f6e:	f803 1b01 	strb.w	r1, [r3], #1
 8004f72:	e7f9      	b.n	8004f68 <memset+0x4>

08004f74 <_init>:
 8004f74:	b5f8      	push	{r3, r4, r5, r6, r7, lr}
 8004f76:	bf00      	nop
 8004f78:	bcf8      	pop	{r3, r4, r5, r6, r7}
 8004f7a:	bc08      	pop	{r3}
 8004f7c:	469e      	mov	lr, r3
 8004f7e:	4770      	bx	lr

08004f80 <_fini>:
 8004f80:	b5f8      	push	{r3, r4, r5, r6, r7, lr}
 8004f82:	bf00      	nop
 8004f84:	bcf8      	pop	{r3, r4, r5, r6, r7}
 8004f86:	bc08      	pop	{r3}
 8004f88:	469e      	mov	lr, r3
 8004f8a:	4770      	bx	lr
